MODULE Linux x86 A644227F100B5F4CB0793515758846170 demo
FUNC 1394 2d 0 dumpCallback
FUNC 13c1 18 0 crash()
FUNC 13d9 113 0 main
FUNC 14ec ad 0 google_breakpad::MinidumpDescriptor::MinidumpDescriptor
FUNC 159a b 0 google_breakpad::MinidumpDescriptor::path() const
FUNC 15a6 43 0 google_breakpad::MinidumpDescriptor::~MinidumpDescriptor
FUNC 15f0 fd 0 google_breakpad::ExceptionHandler::InstallHandlersLocked()
FUNC 16f0 92 0 google_breakpad::ExceptionHandler::RestoreHandlersLocked()
FUNC 1790 be 0 google_breakpad::ExceptionHandler::SendContinueSignalToChild()
FUNC 1850 4cf 0 google_breakpad::ExceptionHandler::GenerateDump(google_breakpad::ExceptionHandler::CrashContext*)
FUNC 1d20 15a 0 google_breakpad::ExceptionHandler::HandleSignal(int, siginfo_t*, void*)
FUNC 1e80 5c 0 google_breakpad::ExceptionHandler::HandleSignal(int, siginfo_t*, void*)
FUNC 1ee0 71 0 google_breakpad::ExceptionHandler::SimulateSignalDelivery(int)
FUNC 1f60 1c2 0 google_breakpad::ExceptionHandler::SignalHandler(int, siginfo_t*, void*)
FUNC 2130 b6 0 google_breakpad::ExceptionHandler::WaitForContinueSignal()
FUNC 21f0 a6 0 google_breakpad::ExceptionHandler::DoDump(int, void const*, unsigned int)
FUNC 22a0 56 0 google_breakpad::ExceptionHandler::ThreadEntry(void*)
FUNC 2300 19a 0 google_breakpad::ExceptionHandler::WriteMinidump()
FUNC 24a0 123 0 google_breakpad::ExceptionHandler::AddMappingInfo(std::string const&, unsigned char const*, unsigned int, unsigned int, unsigned int)
FUNC 25d0 67 0 google_breakpad::ExceptionHandler::RegisterAppMemory(void*, unsigned int)
FUNC 2640 56 0 google_breakpad::ExceptionHandler::UnregisterAppMemory(void*)
FUNC 26a0 17c 0 google_breakpad::ExceptionHandler::WriteMinidumpForChild(int, int, std::string const&, bool (*)(google_breakpad::MinidumpDescriptor const&, void*, bool), void*)
FUNC 2820 362 0 google_breakpad::ExceptionHandler::ExceptionHandler
FUNC 2b90 2fb 0 google_breakpad::ExceptionHandler::~ExceptionHandler
FUNC 2e90 1a8 0 google_breakpad::ExceptionHandler::WriteMinidump(std::string const&, bool (*)(google_breakpad::MinidumpDescriptor const&, void*, bool), void*)
FUNC 3038 39 0 google_breakpad::MinidumpDescriptor::MinidumpDescriptor
FUNC 3080 1a4 0 std::vector<google_breakpad::ExceptionHandler*, std::allocator<google_breakpad::ExceptionHandler*> >::_M_insert_aux(__gnu_cxx::__normal_iterator<google_breakpad::ExceptionHandler**, std::vector<google_breakpad::ExceptionHandler*, std::allocator<google_breakpad::ExceptionHandler*> > >, google_breakpad::ExceptionHandler* const&)
FUNC 3230 e9 0 __gnu_cxx::__normal_iterator<google_breakpad::ExceptionHandler**, std::vector<google_breakpad::ExceptionHandler*, std::allocator<google_breakpad::ExceptionHandler*> > > std::__find<__gnu_cxx::__normal_iterator<google_breakpad::ExceptionHandler**, std::vector<google_breakpad::ExceptionHandler*, std::allocator<google_breakpad::ExceptionHandler*> > >, google_breakpad::ExceptionHandler*>(__gnu_cxx::__normal_iterator<google_breakpad::ExceptionHandler**, std::vector<google_breakpad::ExceptionHandler*, std::allocator<google_breakpad::ExceptionHandler*> > >, __gnu_cxx::__normal_iterator<google_breakpad::ExceptionHandler**, std::vector<google_breakpad::ExceptionHandler*, std::allocator<google_breakpad::ExceptionHandler*> > >, google_breakpad::ExceptionHandler* const&, std::random_access_iterator_tag)
FUNC 3320 95 0 google_breakpad::MinidumpDescriptor::MinidumpDescriptor
FUNC 33c0 2da 0 google_breakpad::MinidumpDescriptor::UpdatePath()
FUNC 36a0 bf 0 google_breakpad::MinidumpDescriptor::operator=(google_breakpad::MinidumpDescriptor const&)
FUNC 3760 58 0 logger::write(char const*, unsigned int)
FUNC 37c0 a 0 U16
FUNC 37d0 64 0 MinidumpWriter::~MinidumpWriter
FUNC 3840 35e6 0 MinidumpWriter::Dump
FUNC 6e30 30f 0 google_breakpad::WriteMinidump(char const*, int, int)
FUNC 7140 30b 0 WriteMinidumpImpl
FUNC 7450 57 0 google_breakpad::WriteMinidump(int, long, int, void const*, unsigned int, std::list<google_breakpad::MappingEntry, std::allocator<google_breakpad::MappingEntry> > const&, std::list<google_breakpad::AppMemory, std::allocator<google_breakpad::AppMemory> > const&)
FUNC 74b0 5a 0 google_breakpad::WriteMinidump(char const*, long, int, void const*, unsigned int, std::list<google_breakpad::MappingEntry, std::allocator<google_breakpad::MappingEntry> > const&, std::list<google_breakpad::AppMemory, std::allocator<google_breakpad::AppMemory> > const&)
FUNC 7510 13 0 google_breakpad::WriteMinidump(int, int, void const*, unsigned int, std::list<google_breakpad::MappingEntry, std::allocator<google_breakpad::MappingEntry> > const&, std::list<google_breakpad::AppMemory, std::allocator<google_breakpad::AppMemory> > const&)
FUNC 7530 16 0 google_breakpad::WriteMinidump(char const*, int, void const*, unsigned int, std::list<google_breakpad::MappingEntry, std::allocator<google_breakpad::MappingEntry> > const&, std::list<google_breakpad::AppMemory, std::allocator<google_breakpad::AppMemory> > const&)
FUNC 7550 c4 0 google_breakpad::WriteMinidump(int, int, void const*, unsigned int)
FUNC 7620 cc 0 google_breakpad::WriteMinidump(char const*, int, void const*, unsigned int)
FUNC 76f0 1c5 0 google_breakpad::WriteMinidump(char const*, std::list<google_breakpad::MappingEntry, std::allocator<google_breakpad::MappingEntry> > const&, std::list<google_breakpad::AppMemory, std::allocator<google_breakpad::AppMemory> > const&, google_breakpad::LinuxDumper*)
FUNC 78b6 38 0 sys_close
FUNC 78ee 39 0 google_breakpad::TypedMDRVA<unsigned int>::CopyIndexAfterObject(unsigned int, void const*, unsigned int)
FUNC 7928 34 0 google_breakpad::TypedMDRVA<MDRawLinkMap>::~TypedMDRVA
FUNC 795c 39 0 MinidumpWriter::MinidumpWriter
FUNC 7996 1d9 0 MinidumpWriter::WriteFile
FUNC 7b70 56 0 MinidumpWriter::WriteProcFile
FUNC 7bd0 56 0 google_breakpad::PageAllocator::~PageAllocator
FUNC 7c30 152 0 google_breakpad::PageAllocator::Alloc(unsigned int)
FUNC 7d90 37 0 std::list<google_breakpad::MappingEntry, std::allocator<google_breakpad::MappingEntry> >::~list
FUNC 7dd0 37 0 std::list<google_breakpad::AppMemory, std::allocator<google_breakpad::AppMemory> >::~list
FUNC 7e10 73 0 google_breakpad::TypedMDRVA<MDRawDirectory>::CopyIndex(unsigned int, MDRawDirectory*)
FUNC 7e90 3e 0 google_breakpad::TypedMDRVA<unsigned int>::~TypedMDRVA
FUNC 7ed0 41 0 google_breakpad::TypedMDRVA<MDRawContextX86>::~TypedMDRVA
FUNC 7f20 1e5 0 std::vector<MDMemoryDescriptor, google_breakpad::PageStdAllocator<MDMemoryDescriptor> >::reserve(unsigned int)
FUNC 8110 37d 0 std::vector<MDMemoryDescriptor, google_breakpad::PageStdAllocator<MDMemoryDescriptor> >::_M_insert_aux(__gnu_cxx::__normal_iterator<MDMemoryDescriptor*, std::vector<MDMemoryDescriptor, google_breakpad::PageStdAllocator<MDMemoryDescriptor> > >, MDMemoryDescriptor const&)
FUNC 8490 3a0 0 std::vector<char, google_breakpad::PageStdAllocator<char> >::_M_fill_insert(__gnu_cxx::__normal_iterator<char*, std::vector<char, google_breakpad::PageStdAllocator<char> > >, unsigned int, char const&)
FUNC 8830 1d 0 google_breakpad::MinidumpFileWriter::MinidumpFileWriter
FUNC 8850 a3 0 google_breakpad::MinidumpFileWriter::Open(char const*)
FUNC 8900 51 0 google_breakpad::MinidumpFileWriter::SetFile(int)
FUNC 8960 8b 0 google_breakpad::MinidumpFileWriter::Close()
FUNC 89f0 26 0 google_breakpad::MinidumpFileWriter::~MinidumpFileWriter
FUNC 8a20 f0 0 google_breakpad::MinidumpFileWriter::Allocate(unsigned int)
FUNC 8b10 156 0 google_breakpad::MinidumpFileWriter::Copy(unsigned int, void const*, int)
FUNC 8c70 b1 0 google_breakpad::MinidumpFileWriter::CopyStringToMDString(char const*, unsigned int, google_breakpad::TypedMDRVA<MDString>*)
FUNC 8d30 c1 0 google_breakpad::MinidumpFileWriter::CopyStringToMDString(wchar_t const*, unsigned int, google_breakpad::TypedMDRVA<MDString>*)
FUNC 8e00 75 0 google_breakpad::UntypedMDRVA::Allocate(unsigned int)
FUNC 8e80 ef 0 google_breakpad::UntypedMDRVA::Copy(unsigned int, void const*, unsigned int)
FUNC 8f70 11a 0 google_breakpad::MinidumpFileWriter::WriteMemory(void const*, unsigned int, MDMemoryDescriptor*)
FUNC 9090 38 0 google_breakpad::MinidumpFileWriter::WriteString(char const*, unsigned int, MDLocationDescriptor*)
FUNC 90d0 38 0 google_breakpad::MinidumpFileWriter::WriteString(wchar_t const*, unsigned int, MDLocationDescriptor*)
FUNC 9108 39 0 google_breakpad::TypedMDRVA<MDString>::CopyIndexAfterObject(unsigned int, void const*, unsigned int)
FUNC 9150 3e 0 google_breakpad::TypedMDRVA<MDString>::~TypedMDRVA
FUNC 9190 24b 0 bool google_breakpad::MinidumpFileWriter::WriteStringCore<char>(char const*, unsigned int, MDLocationDescriptor*)
FUNC 93e0 24b 0 bool google_breakpad::MinidumpFileWriter::WriteStringCore<wchar_t>(wchar_t const*, unsigned int, MDLocationDescriptor*)
FUNC 9630 a2 0 google_breakpad::UTF8ToUTF16Char(char const*, int, unsigned short*)
FUNC 96e0 77 0 google_breakpad::UTF32ToUTF16Char(wchar_t, unsigned short*)
FUNC 9760 16c 0 google_breakpad::UTF16ToUTF8(std::vector<unsigned short, std::allocator<unsigned short> > const&, bool)
FUNC 98d0 107 0 google_breakpad::UTF32ToUTF16(wchar_t const*, std::vector<unsigned short, std::allocator<unsigned short> >*)
FUNC 99e0 107 0 google_breakpad::UTF8ToUTF16(char const*, std::vector<unsigned short, std::allocator<unsigned short> >*)
FUNC 9af0 2ba 0 std::vector<unsigned short, std::allocator<unsigned short> >::_M_fill_insert(__gnu_cxx::__normal_iterator<unsigned short*, std::vector<unsigned short, std::allocator<unsigned short> > >, unsigned int, unsigned short const&)
FUNC 9db0 8c 0 CreateGUID(MDGUID*)
FUNC 9e40 db 0 GUIDToString(MDGUID const*, char*, int)
FUNC 9f20 28 0 GUIDGenerator::InitOnceImpl()
FUNC 9f50 1b 0 my_strlen
FUNC 9f70 54 0 my_strcmp
FUNC 9fd0 60 0 my_strncmp
FUNC a030 65 0 my_strtoui
FUNC a0a0 55 0 my_uint_len
FUNC a100 7e 0 my_uitos
FUNC a180 32 0 my_strchr
FUNC a1c0 36 0 my_strrchr
FUNC a200 3b 0 my_memchr
FUNC a240 60 0 my_read_hex_ptr
FUNC a2a0 3c 0 my_read_decimal_ptr
FUNC a2e0 24 0 my_memset
FUNC a310 53 0 my_strlcpy
FUNC a370 64 0 my_strlcat
FUNC a3e0 41 0 my_isspace
FUNC a430 58 0 sys_socketcall
FUNC a490 177 0 google_breakpad::CrashGenerationClient::RequestDump(void const*, unsigned int)
FUNC a610 3a 0 google_breakpad::CrashGenerationClient::TryCreate(int)
FUNC a650 66 0 google_breakpad::LinuxDumper::~LinuxDumper
FUNC a6c0 36 0 google_breakpad::LinuxDumper::~LinuxDumper
FUNC a700 123 0 google_breakpad::LinuxDumper::ReadAuxv()
FUNC a830 58 0 google_breakpad::LinuxDumper::Init()
FUNC a890 58 0 google_breakpad::LinuxDumper::FindMapping(void const*) const
FUNC a8f0 6c 0 google_breakpad::LinuxDumper::GetStackInfo(void const**, unsigned int*, unsigned int)
FUNC a960 1fa 0 google_breakpad::LinuxDumper::HandleDeletedFileInMapping(char*) const
FUNC ab60 3c1 0 google_breakpad::LinuxDumper::ElfFileIdentifierForMapping(google_breakpad::MappingInfo const&, bool, unsigned int, unsigned char*)
FUNC af30 192 0 google_breakpad::LinuxDumper::LinuxDumper
FUNC b0d0 8bd 0 google_breakpad::LinuxDumper::EnumerateMappings()
FUNC b990 1cd 0 std::vector<int, google_breakpad::PageStdAllocator<int> >::reserve(unsigned int)
FUNC bb60 1cd 0 std::vector<google_breakpad::MappingInfo*, google_breakpad::PageStdAllocator<google_breakpad::MappingInfo*> >::reserve(unsigned int)
FUNC bd30 1cd 0 std::vector<unsigned int, google_breakpad::PageStdAllocator<unsigned int> >::reserve(unsigned int)
FUNC bf00 2e5 0 std::vector<google_breakpad::MappingInfo*, google_breakpad::PageStdAllocator<google_breakpad::MappingInfo*> >::_M_insert_aux(__gnu_cxx::__normal_iterator<google_breakpad::MappingInfo**, std::vector<google_breakpad::MappingInfo*, google_breakpad::PageStdAllocator<google_breakpad::MappingInfo*> > >, google_breakpad::MappingInfo* const&)
FUNC c1f0 440 0 std::vector<unsigned int, google_breakpad::PageStdAllocator<unsigned int> >::_M_fill_insert(__gnu_cxx::__normal_iterator<unsigned int*, std::vector<unsigned int, google_breakpad::PageStdAllocator<unsigned int> > >, unsigned int, unsigned int const&)
FUNC c630 3f5 0 std::vector<google_breakpad::MappingInfo*, google_breakpad::PageStdAllocator<google_breakpad::MappingInfo*> >::_M_fill_insert(__gnu_cxx::__normal_iterator<google_breakpad::MappingInfo**, std::vector<google_breakpad::MappingInfo*, google_breakpad::PageStdAllocator<google_breakpad::MappingInfo*> > >, unsigned int, google_breakpad::MappingInfo* const&)
FUNC ca30 3 0 google_breakpad::LinuxPtraceDumper::IsPostMortem() const
FUNC ca40 102 0 google_breakpad::LinuxPtraceDumper::BuildProcPath(char*, int, char const*) const
FUNC cb50 9f 0 google_breakpad::LinuxPtraceDumper::CopyFromProcess(void*, int, void const*, unsigned int)
FUNC cbf0 a0 0 google_breakpad::LinuxPtraceDumper::ThreadsResume()
FUNC cc90 58d 0 google_breakpad::LinuxPtraceDumper::GetThreadInfoByIndex(unsigned int, google_breakpad::ThreadInfo*)
FUNC d220 45 0 google_breakpad::LinuxPtraceDumper::LinuxPtraceDumper
FUNC d270 396 0 google_breakpad::LinuxPtraceDumper::EnumerateThreads()
FUNC d610 232 0 google_breakpad::LinuxPtraceDumper::ThreadsSuspend()
FUNC d850 2b 0 google_breakpad::LinuxPtraceDumper::~LinuxPtraceDumper
FUNC d880 41 0 google_breakpad::LinuxPtraceDumper::~LinuxPtraceDumper
FUNC d8d0 329 0 std::vector<int, google_breakpad::PageStdAllocator<int> >::_M_insert_aux(__gnu_cxx::__normal_iterator<int*, std::vector<int, google_breakpad::PageStdAllocator<int> > >, int const&)
FUNC dc00 41a 0 std::vector<int, google_breakpad::PageStdAllocator<int> >::_M_fill_insert(__gnu_cxx::__normal_iterator<int*, std::vector<int, google_breakpad::PageStdAllocator<int> > >, unsigned int, int const&)
FUNC e020 d8 0 isLegalUTF8
FUNC e100 fa 0 ConvertUTF32toUTF16
FUNC e200 cd 0 ConvertUTF16toUTF32
FUNC e2d0 1dc 0 ConvertUTF16toUTF8
FUNC e4b0 34 0 isLegalUTF8Sequence
FUNC e4f0 1c2 0 ConvertUTF8toUTF16
FUNC e6c0 185 0 ConvertUTF32toUTF8
FUNC e850 1f7 0 ConvertUTF8toUTF32
FUNC ea50 30 0 google_breakpad::FileID::FileID
FUNC ea80 25a 0 google_breakpad::FileID::ElfFileIdentifierFromMappedFile(void const*, unsigned char*)
FUNC ece0 7e 0 google_breakpad::FileID::ElfFileIdentifier(unsigned char*)
FUNC ed60 102 0 google_breakpad::FileID::ConvertIdentifierToString(unsigned char const*, char*, int)
FUNC ee70 12 0 google_breakpad::MemoryMappedFile::MemoryMappedFile
FUNC ee90 63 0 google_breakpad::MemoryMappedFile::Unmap()
FUNC ef00 1ce 0 google_breakpad::MemoryMappedFile::Map(char const*)
FUNC f0d0 35 0 google_breakpad::MemoryMappedFile::MemoryMappedFile
FUNC f110 20 0 google_breakpad::MemoryMappedFile::~MemoryMappedFile
FUNC f130 7c 0 google_breakpad::SafeReadLink(char const*, char*, unsigned int)
FUNC f1b0 37 0 google_breakpad::IsValidElf(void const*)
FUNC f1f0 9 0 google_breakpad::ElfClass(void const*)
FUNC f200 2d0 0 google_breakpad::FindElfSegment(void const*, unsigned int, void const**, int*, int*)
FUNC f4d0 29f 0 google_breakpad::FindElfSection(void const*, char const*, unsigned int, void const**, int*, int*)
FUNC f770 152 0 google_breakpad::ElfClass32::Shdr const* google_breakpad::FindElfSectionByName<google_breakpad::ElfClass32>(char const*, google_breakpad::ElfClass32::Word, google_breakpad::ElfClass32::Shdr const*, char const*, char const*, int)
FUNC f8d0 152 0 google_breakpad::ElfClass64::Shdr const* google_breakpad::FindElfSectionByName<google_breakpad::ElfClass64>(char const*, google_breakpad::ElfClass64::Word, google_breakpad::ElfClass64::Shdr const*, char const*, char const*, int)
STACK CFI INIT 159a b .cfa: $esp 4 + .ra: .cfa -4 + ^
STACK CFI 159b $ebp: .cfa -8 + ^ .cfa: $esp 8 +
STACK CFI 159d .cfa: $ebp 8 +
STACK CFI 15a4 $ebp: $ebp .cfa: $esp 4 +
STACK CFI INIT 1394 2d .cfa: $esp 4 + .ra: .cfa -4 + ^
STACK CFI 1395 $ebp: .cfa -8 + ^ .cfa: $esp 8 +
STACK CFI 1397 .cfa: $ebp 8 +
STACK CFI 13c0 $ebp: $ebp .cfa: $esp 4 +
STACK CFI INIT 13c1 18 .cfa: $esp 4 + .ra: .cfa -4 + ^
STACK CFI 13c2 $ebp: .cfa -8 + ^ .cfa: $esp 8 +
STACK CFI 13c4 .cfa: $ebp 8 +
STACK CFI 13d8 $ebp: $ebp .cfa: $esp 4 +
STACK CFI INIT 3038 39 .cfa: $esp 4 + .ra: .cfa -4 + ^
STACK CFI 3039 $ebx: .cfa -8 + ^ .cfa: $esp 8 +
STACK CFI 3047 .cfa: $esp 32 +
STACK CFI INIT 15f0 fd .cfa: $esp 4 + .ra: .cfa -4 + ^
STACK CFI 15f1 $ebp: .cfa -8 + ^ .cfa: $esp 8 +
STACK CFI 15f4 $edi: .cfa -12 + ^ .cfa: $esp 12 +
STACK CFI 15f5 $esi: .cfa -16 + ^ .cfa: $esp 16 +
STACK CFI 15f6 $ebx: .cfa -20 + ^ .cfa: $esp 20 +
STACK CFI 1607 .cfa: $esp 192 +
STACK CFI 16d5 .cfa: $esp 20 +
STACK CFI 16d6 $ebx: $ebx .cfa: $esp 16 +
STACK CFI 16d7 $esi: $esi .cfa: $esp 12 +
STACK CFI 16d8 $edi: $edi .cfa: $esp 8 +
STACK CFI 16d9 $ebp: $ebp .cfa: $esp 4 +
STACK CFI 16e0 $ebp: .cfa -8 + ^ $ebx: .cfa -20 + ^ $edi: .cfa -12 + ^ $esi: .cfa -16 + ^ .cfa: $esp 192 +
STACK CFI 16e6 .cfa: $esp 20 +
STACK CFI 16e9 $ebx: $ebx .cfa: $esp 16 +
STACK CFI 16ea $esi: $esi .cfa: $esp 12 +
STACK CFI 16eb $edi: $edi .cfa: $esp 8 +
STACK CFI 16ec $ebp: $ebp .cfa: $esp 4 +
STACK CFI INIT 16f0 92 .cfa: $esp 4 + .ra: .cfa -4 + ^
STACK CFI 16f3 .cfa: $esp 48 +
STACK CFI 16f7 $ebx: .cfa -20 + ^
STACK CFI 1717 $ebp: .cfa -8 + ^ $edi: .cfa -12 + ^ $esi: .cfa -16 + ^
STACK CFI 1769 $ebp: $ebp $ebx: $ebx $edi: $edi $esi: $esi .cfa: $esp 4 +
STACK CFI 1770 $ebp: .cfa -8 + ^ $ebx: .cfa -20 + ^ $edi: .cfa -12 + ^ $esi: .cfa -16 + ^ .cfa: $esp 48 +
STACK CFI INIT 1790 be .cfa: $esp 4 + .ra: .cfa -4 + ^
STACK CFI 1791 $ebp: .cfa -8 + ^ .cfa: $esp 8 +
STACK CFI 1792 $edi: .cfa -12 + ^ .cfa: $esp 12 +
STACK CFI 1793 $esi: .cfa -16 + ^ .cfa: $esp 16 +
STACK CFI 1794 $ebx: .cfa -20 + ^ .cfa: $esp 20 +
STACK CFI 17a2 .cfa: $esp 64 +
STACK CFI 17cd .cfa: $esp 20 +
STACK CFI 17ce $ebx: $ebx .cfa: $esp 16 +
STACK CFI 17cf $esi: $esi .cfa: $esp 12 +
STACK CFI 17d0 $edi: $edi .cfa: $esp 8 +
STACK CFI 17d1 $ebp: $ebp .cfa: $esp 4 +
STACK CFI 17d8 $ebp: .cfa -8 + ^ $ebx: .cfa -20 + ^ $edi: .cfa -12 + ^ $esi: .cfa -16 + ^ .cfa: $esp 64 +
STACK CFI 1849 .cfa: $esp 20 +
STACK CFI 184a $ebx: $ebx .cfa: $esp 16 +
STACK CFI 184b $esi: $esi .cfa: $esp 12 +
STACK CFI 184c $edi: $edi .cfa: $esp 8 +
STACK CFI 184d $ebp: $ebp .cfa: $esp 4 +
STACK CFI INIT 1d20 15a .cfa: $esp 4 + .ra: .cfa -4 + ^
STACK CFI 1d26 .cfa: $esp 672 +
STACK CFI 1d34 $ebx: .cfa -20 + ^
STACK CFI 1d48 $ebp: .cfa -8 + ^
STACK CFI 1d5e $edi: .cfa -12 + ^ $esi: .cfa -16 + ^
STACK CFI 1e39 $ebp: $ebp $ebx: $ebx $edi: $edi $esi: $esi .cfa: $esp 4 +
STACK CFI 1e40 $ebp: .cfa -8 + ^ $ebx: .cfa -20 + ^ $edi: .cfa -12 + ^ $esi: .cfa -16 + ^ .cfa: $esp 672 +
STACK CFI INIT 1e80 5c .cfa: $esp 4 + .ra: .cfa -4 + ^
STACK CFI 1e83 .cfa: $esp 32 +
STACK CFI 1e8b $esi: .cfa -16 + ^
STACK CFI 1e93 $edi: .cfa -12 + ^
STACK CFI 1e9b $ebp: .cfa -8 + ^
STACK CFI 1ebc $ebp: $ebp $edi: $edi $esi: $esi .cfa: $esp 4 +
STACK CFI 1ec0 $ebp: .cfa -8 + ^ $edi: .cfa -12 + ^ $esi: .cfa -16 + ^ .cfa: $esp 32 +
STACK CFI 1ed7 $ebp: $ebp $edi: $edi $esi: $esi .cfa: $esp 4 +
STACK CFI INIT 1ee0 71 .cfa: $esp 4 + .ra: .cfa -4 + ^
STACK CFI 1ee1 $edi: .cfa -8 + ^ .cfa: $esp 8 +
STACK CFI 1ee4 $ebx: .cfa -12 + ^ .cfa: $esp 12 +
STACK CFI 1efa .cfa: $esp 512 +
STACK CFI 1f4e .cfa: $esp 12 +
STACK CFI 1f4f $ebx: $ebx .cfa: $esp 8 +
STACK CFI 1f50 $edi: $edi .cfa: $esp 4 +
STACK CFI INIT 1f60 1c2 .cfa: $esp 4 + .ra: .cfa -4 + ^
STACK CFI 1f61 $ebp: .cfa -8 + ^ .cfa: $esp 8 +
STACK CFI 1f62 $edi: .cfa -12 + ^ .cfa: $esp 12 +
STACK CFI 1f63 $esi: .cfa -16 + ^ .cfa: $esp 16 +
STACK CFI 1f64 $ebx: .cfa -20 + ^ .cfa: $esp 20 +
STACK CFI 1f75 .cfa: $esp 208 +
STACK CFI 2040 .cfa: $esp 20 +
STACK CFI 2041 $ebx: $ebx .cfa: $esp 16 +
STACK CFI 2042 $esi: $esi .cfa: $esp 12 +
STACK CFI 2043 $edi: $edi .cfa: $esp 8 +
STACK CFI 2044 $ebp: $ebp .cfa: $esp 4 +
STACK CFI 2048 $ebp: .cfa -8 + ^ $ebx: .cfa -20 + ^ $edi: .cfa -12 + ^ $esi: .cfa -16 + ^ .cfa: $esp 208 +
STACK CFI 20fa .cfa: $esp 20 +
STACK CFI 20fb $ebx: $ebx .cfa: $esp 16 +
STACK CFI 20fc $esi: $esi .cfa: $esp 12 +
STACK CFI 20fd $edi: $edi .cfa: $esp 8 +
STACK CFI 20fe $ebp: $ebp .cfa: $esp 4 +
STACK CFI 2100 $ebp: .cfa -8 + ^ $ebx: .cfa -20 + ^ $edi: .cfa -12 + ^ $esi: .cfa -16 + ^ .cfa: $esp 208 +
STACK CFI INIT 2130 b6 .cfa: $esp 4 + .ra: .cfa -4 + ^
STACK CFI 2131 $ebp: .cfa -8 + ^ .cfa: $esp 8 +
STACK CFI 2132 $edi: .cfa -12 + ^ .cfa: $esp 12 +
STACK CFI 2133 $esi: .cfa -16 + ^ .cfa: $esp 16 +
STACK CFI 2134 $ebx: .cfa -20 + ^ .cfa: $esp 20 +
STACK CFI 2142 .cfa: $esp 80 +
STACK CFI 216b .cfa: $esp 20 +
STACK CFI 216c $ebx: $ebx .cfa: $esp 16 +
STACK CFI 216d $esi: $esi .cfa: $esp 12 +
STACK CFI 216e $edi: $edi .cfa: $esp 8 +
STACK CFI 216f $ebp: $ebp .cfa: $esp 4 +
STACK CFI 2170 $ebp: .cfa -8 + ^ $ebx: .cfa -20 + ^ $edi: .cfa -12 + ^ $esi: .cfa -16 + ^ .cfa: $esp 80 +
STACK CFI 21e1 .cfa: $esp 20 +
STACK CFI 21e2 $ebx: $ebx .cfa: $esp 16 +
STACK CFI 21e3 $esi: $esi .cfa: $esp 12 +
STACK CFI 21e4 $edi: $edi .cfa: $esp 8 +
STACK CFI 21e5 $ebp: $ebp .cfa: $esp 4 +
STACK CFI INIT 21f0 a6 .cfa: $esp 4 + .ra: .cfa -4 + ^
STACK CFI 21f3 .cfa: $esp 64 +
STACK CFI 21ff $ebx: .cfa -20 + ^
STACK CFI 2212 $esi: .cfa -16 + ^
STACK CFI 221d $edi: .cfa -12 + ^
STACK CFI 2226 $ebp: .cfa -8 + ^
STACK CFI 2262 $ebp: $ebp $ebx: $ebx $edi: $edi $esi: $esi .cfa: $esp 4 +
STACK CFI 2268 $ebp: .cfa -8 + ^ $ebx: .cfa -20 + ^ $edi: .cfa -12 + ^ $esi: .cfa -16 + ^ .cfa: $esp 64 +
STACK CFI INIT 22a0 56 .cfa: $esp 4 + .ra: .cfa -4 + ^
STACK CFI 22a3 .cfa: $esp 32 +
STACK CFI 22ab $esi: .cfa -8 + ^
STACK CFI 22af $ebx: .cfa -12 + ^
STACK CFI 22ef $ebx: $ebx $esi: $esi .cfa: $esp 4 +
STACK CFI INIT 2300 19a .cfa: $esp 4 + .ra: .cfa -4 + ^
STACK CFI 2301 $ebp: .cfa -8 + ^ .cfa: $esp 8 +
STACK CFI 2303 .cfa: $ebp 8 +
STACK CFI 230f $ebx: .cfa -20 + ^ $edi: .cfa -12 + ^ $esi: .cfa -16 + ^
STACK CFI 2414 $ebx: $ebx
STACK CFI 2415 $esi: $esi
STACK CFI 2416 $edi: $edi
STACK CFI 2417 $ebp: $ebp .cfa: $esp 4 +
STACK CFI 2418 $ebp: .cfa -8 + ^ $ebx: .cfa -20 + ^ $edi: .cfa -12 + ^ $esi: .cfa -16 + ^ .cfa: $ebp 8 +
STACK CFI INIT 24a0 123 .cfa: $esp 4 + .ra: .cfa -4 + ^
STACK CFI 24a6 .cfa: $esp 624 +
STACK CFI 24b4 $ebx: .cfa -20 + ^
STACK CFI 24e3 $esi: .cfa -16 + ^
STACK CFI 24f8 $ebp: .cfa -8 + ^ $edi: .cfa -12 + ^
STACK CFI 25c2 $ebp: $ebp $ebx: $ebx $edi: $edi $esi: $esi .cfa: $esp 4 +
STACK CFI INIT 25d0 67 .cfa: $esp 4 + .ra: .cfa -4 + ^
STACK CFI 25d1 $edi: .cfa -8 + ^ .cfa: $esp 8 +
STACK CFI 25d2 $esi: .cfa -12 + ^ .cfa: $esp 12 +
STACK CFI 25d3 $ebx: .cfa -16 + ^ .cfa: $esp 16 +
STACK CFI 25d6 .cfa: $esp 32 +
STACK CFI 2633 .cfa: $esp 16 +
STACK CFI 2634 $ebx: $ebx .cfa: $esp 12 +
STACK CFI 2635 $esi: $esi .cfa: $esp 8 +
STACK CFI 2636 $edi: $edi .cfa: $esp 4 +
STACK CFI INIT 2640 56 .cfa: $esp 4 + .ra: .cfa -4 + ^
STACK CFI 2641 $esi: .cfa -8 + ^ .cfa: $esp 8 +
STACK CFI 2642 $ebx: .cfa -12 + ^ .cfa: $esp 12 +
STACK CFI 2645 .cfa: $esp 32 +
STACK CFI 2676 .cfa: $esp 12 +
STACK CFI 2677 $ebx: $ebx .cfa: $esp 8 +
STACK CFI 2678 $esi: $esi .cfa: $esp 4 +
STACK CFI 2680 $ebx: .cfa -12 + ^ $esi: .cfa -8 + ^ .cfa: $esp 32 +
STACK CFI 2693 .cfa: $esp 12 +
STACK CFI 2694 $ebx: $ebx .cfa: $esp 8 +
STACK CFI 2695 $esi: $esi .cfa: $esp 4 +
STACK CFI INIT 3080 1a4 .cfa: $esp 4 + .ra: .cfa -4 + ^
STACK CFI 3083 .cfa: $esp 64 +
STACK CFI 308b $esi: .cfa -16 + ^
STACK CFI 308f $ebx: .cfa -20 + ^
STACK CFI 30a2 $edi: .cfa -12 + ^
STACK CFI 30b0 $ebp: .cfa -8 + ^
STACK CFI 30ea $ebp: $ebp $ebx: $ebx $edi: $edi $esi: $esi .cfa: $esp 4 +
STACK CFI 30f0 $ebp: .cfa -8 + ^ $ebx: .cfa -20 + ^ $edi: .cfa -12 + ^ $esi: .cfa -16 + ^ .cfa: $esp 64 +
STACK CFI INIT 3230 e9 .cfa: $esp 4 + .ra: .cfa -4 + ^
STACK CFI 3231 $ebp: .cfa -8 + ^ .cfa: $esp 8 +
STACK CFI 3232 $edi: .cfa -12 + ^ .cfa: $esp 12 +
STACK CFI 3233 $esi: .cfa -16 + ^ .cfa: $esp 16 +
STACK CFI 32c3 $esi: $esi .cfa: $esp 12 +
STACK CFI 32c4 $edi: $edi .cfa: $esp 8 +
STACK CFI 32c5 $ebp: $ebp .cfa: $esp 4 +
STACK CFI 32c8 $ebp: .cfa -8 + ^ $edi: .cfa -12 + ^ $esi: .cfa -16 + ^ .cfa: $esp 16 +
STACK CFI 32d3 $esi: $esi .cfa: $esp 12 +
STACK CFI 32d4 $edi: $edi .cfa: $esp 8 +
STACK CFI 32d5 $ebp: $ebp .cfa: $esp 4 +
STACK CFI 32d8 $ebp: .cfa -8 + ^ $edi: .cfa -12 + ^ $esi: .cfa -16 + ^ .cfa: $esp 16 +
STACK CFI 32f3 $esi: $esi .cfa: $esp 12 +
STACK CFI 32f4 $edi: $edi .cfa: $esp 8 +
STACK CFI 32f5 $ebp: $ebp .cfa: $esp 4 +
STACK CFI 32f8 $ebp: .cfa -8 + ^ $edi: .cfa -12 + ^ $esi: .cfa -16 + ^ .cfa: $esp 16 +
STACK CFI INIT 3319 4 .cfa: $esp 4 + .ra: .cfa -4 + ^
STACK CFI INIT 3320 95 .cfa: $esp 4 + .ra: .cfa -4 + ^
STACK CFI 3323 .cfa: $esp 32 +
STACK CFI 332b $edi: .cfa -8 + ^
STACK CFI 3337 $ebx: .cfa -16 + ^ $esi: .cfa -12 + ^
STACK CFI 338a $ebx: $ebx $edi: $edi $esi: $esi .cfa: $esp 4 +
STACK CFI 338b $ebx: .cfa -16 + ^ $edi: .cfa -8 + ^ $esi: .cfa -12 + ^ .cfa: $esp 32 +
STACK CFI INIT 36a0 bf .cfa: $esp 4 + .ra: .cfa -4 + ^
STACK CFI 36a3 .cfa: $esp 32 +
STACK CFI 36ab $edi: .cfa -8 + ^
STACK CFI 36af $ebx: .cfa -16 + ^
STACK CFI 36c2 $esi: .cfa -12 + ^
STACK CFI 3734 $ebx: $ebx $edi: $edi $esi: $esi .cfa: $esp 4 +
STACK CFI 3735 $ebx: .cfa -16 + ^ $edi: .cfa -8 + ^ $esi: .cfa -12 + ^ .cfa: $esp 32 +
STACK CFI INIT 3760 58 .cfa: $esp 4 + .ra: .cfa -4 + ^
STACK CFI 3763 .cfa: $esp 16 +
STACK CFI 376c $esi: .cfa -8 + ^
STACK CFI 377a $ebx: .cfa -12 + ^
STACK CFI 37a4 $ebx: $ebx $esi: $esi .cfa: $esp 4 +
STACK CFI 37a8 $ebx: .cfa -12 + ^ $esi: .cfa -8 + ^ .cfa: $esp 16 +
STACK CFI INIT 78b6 38 .cfa: $esp 4 + .ra: .cfa -4 + ^
STACK CFI 78b7 $esi: .cfa -8 + ^ .cfa: $esp 8 +
STACK CFI 78bd $ebx: .cfa -12 + ^ .cfa: $esp 12 +
STACK CFI 78c0 .cfa: $esp 16 +
STACK CFI 78eb .cfa: $esp 12 +
STACK CFI 78ec $ebx: $ebx .cfa: $esp 8 +
STACK CFI 78ed $esi: $esi .cfa: $esp 4 +
STACK CFI INIT 37c0 a .cfa: $esp 4 + .ra: .cfa -4 + ^
STACK CFI 37c3 .cfa: $esp 8 +
STACK CFI 37c9 .cfa: $esp 4 +
STACK CFI INIT 78ee 39 .cfa: $esp 4 + .ra: .cfa -4 + ^
STACK CFI 78ef $ebx: .cfa -8 + ^ .cfa: $esp 8 +
STACK CFI 78fd .cfa: $esp 32 +
STACK CFI INIT 7928 34 .cfa: $esp 4 + .ra: .cfa -4 + ^
STACK CFI 7929 $ebx: .cfa -8 + ^ .cfa: $esp 8 +
STACK CFI 792c .cfa: $esp 32 +
STACK CFI 795a .cfa: $esp 8 +
STACK CFI 795b $ebx: $ebx .cfa: $esp 4 +
STACK CFI INIT 795c 39 .cfa: $esp 4 + .ra: .cfa -4 + ^
STACK CFI 795d $ebx: .cfa -8 + ^ .cfa: $esp 8 +
STACK CFI 796b .cfa: $esp 32 +
STACK CFI INIT 7bd0 56 .cfa: $esp 4 + .ra: .cfa -4 + ^
STACK CFI 7bd1 $ebp: .cfa -8 + ^ .cfa: $esp 8 +
STACK CFI 7bd2 $edi: .cfa -12 + ^ .cfa: $esp 12 +
STACK CFI 7bd3 $esi: .cfa -16 + ^ .cfa: $esp 16 +
STACK CFI 7bd4 $ebx: .cfa -20 + ^ .cfa: $esp 20 +
STACK CFI 7bd7 .cfa: $esp 32 +
STACK CFI 7c21 .cfa: $esp 20 +
STACK CFI 7c22 $ebx: $ebx .cfa: $esp 16 +
STACK CFI 7c23 $esi: $esi .cfa: $esp 12 +
STACK CFI 7c24 $edi: $edi .cfa: $esp 8 +
STACK CFI 7c25 $ebp: $ebp .cfa: $esp 4 +
STACK CFI INIT 7c30 152 .cfa: $esp 4 + .ra: .cfa -4 + ^
STACK CFI 7c33 .cfa: $esp 64 +
STACK CFI 7c3d $esi: .cfa -16 + ^
STACK CFI 7c41 $ebx: .cfa -20 + ^
STACK CFI 7c54 $ebp: .cfa -8 + ^
STACK CFI 7c5c $edi: .cfa -12 + ^
STACK CFI 7c9a $ebp: $ebp $ebx: $ebx $edi: $edi $esi: $esi .cfa: $esp 4 +
STACK CFI 7ca0 $ebp: .cfa -8 + ^ $ebx: .cfa -20 + ^ $edi: .cfa -12 + ^ $esi: .cfa -16 + ^ .cfa: $esp 64 +
STACK CFI INIT 7996 1d9 .cfa: $esp 4 + .ra: .cfa -4 + ^
STACK CFI 7997 $ebp: .cfa -8 + ^ .cfa: $esp 8 +
STACK CFI 799d $edi: .cfa -12 + ^ .cfa: $esp 12 +
STACK CFI 799e $esi: .cfa -16 + ^ .cfa: $esp 16 +
STACK CFI 799f $ebx: .cfa -20 + ^ .cfa: $esp 20 +
STACK CFI 79a2 .cfa: $esp 80 +
STACK CFI 7b5b .cfa: $esp 20 +
STACK CFI 7b5e $ebx: $ebx .cfa: $esp 16 +
STACK CFI 7b5f $esi: $esi .cfa: $esp 12 +
STACK CFI 7b60 $edi: $edi .cfa: $esp 8 +
STACK CFI 7b61 $ebp: $ebp .cfa: $esp 4 +
STACK CFI 7b62 $ebp: .cfa -8 + ^ $ebx: .cfa -20 + ^ $edi: .cfa -12 + ^ $esi: .cfa -16 + ^ .cfa: $esp 80 +
STACK CFI INIT 7b70 56 .cfa: $esp 4 + .ra: .cfa -4 + ^
STACK CFI 7b71 $ebp: .cfa -8 + ^ .cfa: $esp 8 +
STACK CFI 7b74 $edi: .cfa -12 + ^ .cfa: $esp 12 +
STACK CFI 7b75 $esi: .cfa -16 + ^ .cfa: $esp 16 +
STACK CFI 7b7d .cfa: $esp 288 +
STACK CFI 7bc0 .cfa: $esp 16 +
STACK CFI 7bc3 $esi: $esi .cfa: $esp 12 +
STACK CFI 7bc4 $edi: $edi .cfa: $esp 8 +
STACK CFI 7bc5 $ebp: $ebp .cfa: $esp 4 +
STACK CFI INIT 7d90 37 .cfa: $esp 4 + .ra: .cfa -4 + ^
STACK CFI 7d91 $edi: .cfa -8 + ^ .cfa: $esp 8 +
STACK CFI 7d92 $esi: .cfa -12 + ^ .cfa: $esp 12 +
STACK CFI 7d93 $ebx: .cfa -16 + ^ .cfa: $esp 16 +
STACK CFI 7d96 .cfa: $esp 32 +
STACK CFI 7dc3 .cfa: $esp 16 +
STACK CFI 7dc4 $ebx: $ebx .cfa: $esp 12 +
STACK CFI 7dc5 $esi: $esi .cfa: $esp 8 +
STACK CFI 7dc6 $edi: $edi .cfa: $esp 4 +
STACK CFI INIT 7dd0 37 .cfa: $esp 4 + .ra: .cfa -4 + ^
STACK CFI 7dd1 $edi: .cfa -8 + ^ .cfa: $esp 8 +
STACK CFI 7dd2 $esi: .cfa -12 + ^ .cfa: $esp 12 +
STACK CFI 7dd3 $ebx: .cfa -16 + ^ .cfa: $esp 16 +
STACK CFI 7dd6 .cfa: $esp 32 +
STACK CFI 7e03 .cfa: $esp 16 +
STACK CFI 7e04 $ebx: $ebx .cfa: $esp 12 +
STACK CFI 7e05 $esi: $esi .cfa: $esp 8 +
STACK CFI 7e06 $edi: $edi .cfa: $esp 4 +
STACK CFI INIT 7e10 73 .cfa: $esp 4 + .ra: .cfa -4 + ^
STACK CFI 7e11 $ebx: .cfa -8 + ^ .cfa: $esp 8 +
STACK CFI 7e14 .cfa: $esp 32 +
STACK CFI 7e57 .cfa: $esp 8 +
STACK CFI 7e58 $ebx: $ebx .cfa: $esp 4 +
STACK CFI 7e59 $ebx: .cfa -8 + ^ .cfa: $esp 32 +
STACK CFI INIT 7e90 3e .cfa: $esp 4 + .ra: .cfa -4 + ^
STACK CFI 7e91 $ebx: .cfa -8 + ^ .cfa: $esp 8 +
STACK CFI 7e94 .cfa: $esp 32 +
STACK CFI 7ecc .cfa: $esp 8 +
STACK CFI 7ecd $ebx: $ebx .cfa: $esp 4 +
STACK CFI INIT 7ed0 41 .cfa: $esp 4 + .ra: .cfa -4 + ^
STACK CFI 7ed1 $ebx: .cfa -8 + ^ .cfa: $esp 8 +
STACK CFI 7ed4 .cfa: $esp 32 +
STACK CFI 7f0f .cfa: $esp 8 +
STACK CFI 7f10 $ebx: $ebx .cfa: $esp 4 +
STACK CFI INIT 7f20 1e5 .cfa: $esp 4 + .ra: .cfa -4 + ^
STACK CFI 7f21 $ebp: .cfa -8 + ^ .cfa: $esp 8 +
STACK CFI 7f22 $edi: .cfa -12 + ^ .cfa: $esp 12 +
STACK CFI 7f23 $esi: .cfa -16 + ^ .cfa: $esp 16 +
STACK CFI 7f24 $ebx: .cfa -20 + ^ .cfa: $esp 20 +
STACK CFI 7f27 .cfa: $esp 96 +
STACK CFI 7fc6 .cfa: $esp 20 +
STACK CFI 7fc7 $ebx: $ebx .cfa: $esp 16 +
STACK CFI 7fc8 $esi: $esi .cfa: $esp 12 +
STACK CFI 7fc9 $edi: $edi .cfa: $esp 8 +
STACK CFI 7fca $ebp: $ebp .cfa: $esp 4 +
STACK CFI 7fd0 $ebp: .cfa -8 + ^ $ebx: .cfa -20 + ^ $edi: .cfa -12 + ^ $esi: .cfa -16 + ^ .cfa: $esp 96 +
STACK CFI INIT 8110 37d .cfa: $esp 4 + .ra: .cfa -4 + ^
STACK CFI 8111 $ebp: .cfa -8 + ^ .cfa: $esp 8 +
STACK CFI 8112 $edi: .cfa -12 + ^ .cfa: $esp 12 +
STACK CFI 8113 $esi: .cfa -16 + ^ .cfa: $esp 16 +
STACK CFI 8114 $ebx: .cfa -20 + ^ .cfa: $esp 20 +
STACK CFI 8117 .cfa: $esp 96 +
STACK CFI 81aa .cfa: $esp 20 +
STACK CFI 81ab $ebx: $ebx .cfa: $esp 16 +
STACK CFI 81ac $esi: $esi .cfa: $esp 12 +
STACK CFI 81ad $edi: $edi .cfa: $esp 8 +
STACK CFI 81ae $ebp: $ebp .cfa: $esp 4 +
STACK CFI 81b0 $ebp: .cfa -8 + ^ $ebx: .cfa -20 + ^ $edi: .cfa -12 + ^ $esi: .cfa -16 + ^ .cfa: $esp 96 +
STACK CFI 831c .cfa: $esp 20 +
STACK CFI 831d $ebx: $ebx .cfa: $esp 16 +
STACK CFI 831e $esi: $esi .cfa: $esp 12 +
STACK CFI 831f $edi: $edi .cfa: $esp 8 +
STACK CFI 8320 $ebp: $ebp .cfa: $esp 4 +
STACK CFI 8328 $ebp: .cfa -8 + ^ $ebx: .cfa -20 + ^ $edi: .cfa -12 + ^ $esi: .cfa -16 + ^ .cfa: $esp 96 +
STACK CFI INIT 8490 3a0 .cfa: $esp 4 + .ra: .cfa -4 + ^
STACK CFI 8491 $ebp: .cfa -8 + ^ .cfa: $esp 8 +
STACK CFI 8492 $edi: .cfa -12 + ^ .cfa: $esp 12 +
STACK CFI 8493 $esi: .cfa -16 + ^ .cfa: $esp 16 +
STACK CFI 8494 $ebx: .cfa -20 + ^ .cfa: $esp 20 +
STACK CFI 8497 .cfa: $esp 96 +
STACK CFI 85c9 .cfa: $esp 20 +
STACK CFI 85ca $ebx: $ebx .cfa: $esp 16 +
STACK CFI 85cb $esi: $esi .cfa: $esp 12 +
STACK CFI 85cc $edi: $edi .cfa: $esp 8 +
STACK CFI 85cd $ebp: $ebp .cfa: $esp 4 +
STACK CFI 85d0 $ebp: .cfa -8 + ^ $ebx: .cfa -20 + ^ $edi: .cfa -12 + ^ $esi: .cfa -16 + ^ .cfa: $esp 96 +
STACK CFI 8662 .cfa: $esp 20 +
STACK CFI 8663 $ebx: $ebx .cfa: $esp 16 +
STACK CFI 8664 $esi: $esi .cfa: $esp 12 +
STACK CFI 8665 $edi: $edi .cfa: $esp 8 +
STACK CFI 8666 $ebp: $ebp .cfa: $esp 4 +
STACK CFI 8668 $ebp: .cfa -8 + ^ $ebx: .cfa -20 + ^ $edi: .cfa -12 + ^ $esi: .cfa -16 + ^ .cfa: $esp 96 +
STACK CFI 86e5 .cfa: $esp 20 +
STACK CFI 86e6 $ebx: $ebx .cfa: $esp 16 +
STACK CFI 86e7 $esi: $esi .cfa: $esp 12 +
STACK CFI 86e8 $edi: $edi .cfa: $esp 8 +
STACK CFI 86e9 $ebp: $ebp .cfa: $esp 4 +
STACK CFI 86f0 $ebp: .cfa -8 + ^ $ebx: .cfa -20 + ^ $edi: .cfa -12 + ^ $esi: .cfa -16 + ^ .cfa: $esp 96 +
STACK CFI INIT 7450 57 .cfa: $esp 4 + .ra: .cfa -4 + ^
STACK CFI 7453 .cfa: $esp 16 +
STACK CFI 7462 $esi: .cfa -16 + ^
STACK CFI 746e $edi: .cfa -12 + ^
STACK CFI 7476 $ebp: .cfa -8 + ^
STACK CFI 74a2 $ebp: $ebp $edi: $edi $esi: $esi .cfa: $esp 4 +
STACK CFI INIT 74b0 5a .cfa: $esp 4 + .ra: .cfa -4 + ^
STACK CFI 74b3 .cfa: $esp 16 +
STACK CFI 74c2 $esi: .cfa -16 + ^
STACK CFI 74ce $edi: .cfa -12 + ^
STACK CFI 74d6 $ebp: .cfa -8 + ^
STACK CFI 7505 $ebp: $ebp $edi: $edi $esi: $esi .cfa: $esp 4 +
STACK CFI INIT 7510 13 .cfa: $esp 4 + .ra: .cfa -4 + ^
STACK CFI INIT 7530 16 .cfa: $esp 4 + .ra: .cfa -4 + ^
STACK CFI INIT 9108 39 .cfa: $esp 4 + .ra: .cfa -4 + ^
STACK CFI 9109 $ebx: .cfa -8 + ^ .cfa: $esp 8 +
STACK CFI 9117 .cfa: $esp 32 +
STACK CFI INIT 8830 1d .cfa: $esp 4 + .ra: .cfa -4 + ^
STACK CFI INIT 8850 a3 .cfa: $esp 4 + .ra: .cfa -4 + ^
STACK CFI 8853 .cfa: $esp 48 +
STACK CFI 885b $ebp: .cfa -8 + ^
STACK CFI 885f $ebx: .cfa -20 + ^
STACK CFI 8878 $edi: .cfa -12 + ^ $esi: .cfa -16 + ^
STACK CFI 88c8 $ebp: $ebp $ebx: $ebx $edi: $edi $esi: $esi .cfa: $esp 4 +
STACK CFI 88c9 $ebp: .cfa -8 + ^ $ebx: .cfa -20 + ^ $edi: .cfa -12 + ^ $esi: .cfa -16 + ^ .cfa: $esp 48 +
STACK CFI INIT 8900 51 .cfa: $esp 4 + .ra: .cfa -4 + ^
STACK CFI 8901 $ebx: .cfa -8 + ^ .cfa: $esp 8 +
STACK CFI 8904 .cfa: $esp 32 +
STACK CFI 8925 .cfa: $esp 8 +
STACK CFI 8926 $ebx: $ebx .cfa: $esp 4 +
STACK CFI 8927 $ebx: .cfa -8 + ^ .cfa: $esp 32 +
STACK CFI INIT 8960 8b .cfa: $esp 4 + .ra: .cfa -4 + ^
STACK CFI 8963 .cfa: $esp 48 +
STACK CFI 896b $esi: .cfa -16 + ^
STACK CFI 896f $ebx: .cfa -20 + ^
STACK CFI 8983 $edi: .cfa -12 + ^
STACK CFI 898e $ebp: .cfa -8 + ^
STACK CFI 89de $ebp: $ebp $ebx: $ebx $edi: $edi $esi: $esi .cfa: $esp 4 +
STACK CFI 89e0 $ebp: .cfa -8 + ^ $ebx: .cfa -20 + ^ $edi: .cfa -12 + ^ $esi: .cfa -16 + ^ .cfa: $esp 48 +
STACK CFI INIT 89f0 26 .cfa: $esp 4 + .ra: .cfa -4 + ^
STACK CFI 89f1 $ebx: .cfa -8 + ^ .cfa: $esp 8 +
STACK CFI 89f4 .cfa: $esp 32 +
STACK CFI 8a14 .cfa: $esp 8 +
STACK CFI 8a15 $ebx: $ebx .cfa: $esp 4 +
STACK CFI INIT 8a20 f0 .cfa: $esp 4 + .ra: .cfa -4 + ^
STACK CFI 8a23 .cfa: $esp 64 +
STACK CFI 8a2b $edi: .cfa -12 + ^
STACK CFI 8a2f $ebx: .cfa -20 + ^
STACK CFI 8a42 $esi: .cfa -16 + ^
STACK CFI 8a4a $ebp: .cfa -8 + ^
STACK CFI 8abb $ebp: $ebp $ebx: $ebx $edi: $edi $esi: $esi .cfa: $esp 4 +
STACK CFI 8abc $ebp: .cfa -8 + ^ $ebx: .cfa -20 + ^ $edi: .cfa -12 + ^ $esi: .cfa -16 + ^ .cfa: $esp 64 +
STACK CFI INIT 8b10 156 .cfa: $esp 4 + .ra: .cfa -4 + ^
STACK CFI 8b13 .cfa: $esp 64 +
STACK CFI 8b1f $ebx: .cfa -20 + ^
STACK CFI 8b32 $ebp: .cfa -8 + ^
STACK CFI 8b42 $edi: .cfa -12 + ^ $esi: .cfa -16 + ^
STACK CFI 8bae $ebp: $ebp $ebx: $ebx $edi: $edi $esi: $esi .cfa: $esp 4 +
STACK CFI 8bb0 $ebp: .cfa -8 + ^ $ebx: .cfa -20 + ^ $edi: .cfa -12 + ^ $esi: .cfa -16 + ^ .cfa: $esp 64 +
STACK CFI INIT 8c70 b1 .cfa: $esp 4 + .ra: .cfa -4 + ^
STACK CFI 8c71 $ebp: .cfa -8 + ^ .cfa: $esp 8 +
STACK CFI 8c77 $edi: .cfa -12 + ^ .cfa: $esp 12 +
STACK CFI 8c78 $esi: .cfa -16 + ^ .cfa: $esp 16 +
STACK CFI 8c79 $ebx: .cfa -20 + ^ .cfa: $esp 20 +
STACK CFI 8c7c .cfa: $esp 80 +
STACK CFI 8ca3 .cfa: $esp 20 +
STACK CFI 8ca4 $ebx: $ebx .cfa: $esp 16 +
STACK CFI 8ca5 $esi: $esi .cfa: $esp 12 +
STACK CFI 8ca6 $edi: $edi .cfa: $esp 8 +
STACK CFI 8ca7 $ebp: $ebp .cfa: $esp 4 +
STACK CFI 8ca8 $ebp: .cfa -8 + ^ $ebx: .cfa -20 + ^ $edi: .cfa -12 + ^ $esi: .cfa -16 + ^ .cfa: $esp 80 +
STACK CFI INIT 8d30 c1 .cfa: $esp 4 + .ra: .cfa -4 + ^
STACK CFI 8d31 $ebp: .cfa -8 + ^ .cfa: $esp 8 +
STACK CFI 8d34 $edi: .cfa -12 + ^ .cfa: $esp 12 +
STACK CFI 8d35 $esi: .cfa -16 + ^ .cfa: $esp 16 +
STACK CFI 8d36 $ebx: .cfa -20 + ^ .cfa: $esp 20 +
STACK CFI 8d39 .cfa: $esp 80 +
STACK CFI 8d5b .cfa: $esp 20 +
STACK CFI 8d5c $ebx: $ebx .cfa: $esp 16 +
STACK CFI 8d5d $esi: $esi .cfa: $esp 12 +
STACK CFI 8d5e $edi: $edi .cfa: $esp 8 +
STACK CFI 8d5f $ebp: $ebp .cfa: $esp 4 +
STACK CFI 8d60 $ebp: .cfa -8 + ^ $ebx: .cfa -20 + ^ $edi: .cfa -12 + ^ $esi: .cfa -16 + ^ .cfa: $esp 80 +
STACK CFI 8de5 .cfa: $esp 20 +
STACK CFI 8de8 $ebx: $ebx .cfa: $esp 16 +
STACK CFI 8de9 $esi: $esi .cfa: $esp 12 +
STACK CFI 8dea $edi: $edi .cfa: $esp 8 +
STACK CFI 8deb $ebp: $ebp .cfa: $esp 4 +
STACK CFI 8dec $ebp: .cfa -8 + ^ $ebx: .cfa -20 + ^ $edi: .cfa -12 + ^ $esi: .cfa -16 + ^ .cfa: $esp 80 +
STACK CFI INIT 8e00 75 .cfa: $esp 4 + .ra: .cfa -4 + ^
STACK CFI 8e03 .cfa: $esp 32 +
STACK CFI 8e0b $esi: .cfa -8 + ^
STACK CFI 8e13 $ebx: .cfa -12 + ^
STACK CFI 8e4a $ebx: $ebx $esi: $esi .cfa: $esp 4 +
STACK CFI 8e4b $ebx: .cfa -12 + ^ $esi: .cfa -8 + ^ .cfa: $esp 32 +
STACK CFI INIT 8e80 ef .cfa: $esp 4 + .ra: .cfa -4 + ^
STACK CFI 8e83 .cfa: $esp 48 +
STACK CFI 8e8b $esi: .cfa -16 + ^
STACK CFI 8e93 $ebx: .cfa -20 + ^
STACK CFI 8eaa $edi: .cfa -12 + ^
STACK CFI 8eb2 $ebp: .cfa -8 + ^
STACK CFI 8ef0 $ebp: $ebp $ebx: $ebx $edi: $edi $esi: $esi .cfa: $esp 4 +
STACK CFI 8ef1 $ebp: .cfa -8 + ^ $ebx: .cfa -20 + ^ $edi: .cfa -12 + ^ $esi: .cfa -16 + ^ .cfa: $esp 48 +
STACK CFI INIT 8f70 11a .cfa: $esp 4 + .ra: .cfa -4 + ^
STACK CFI 8f73 .cfa: $esp 80 +
STACK CFI 8f7b $ebp: .cfa -8 + ^
STACK CFI 8f83 $ebx: .cfa -20 + ^
STACK CFI 8f96 $edi: .cfa -12 + ^
STACK CFI 8fa2 $esi: .cfa -16 + ^
STACK CFI 8fec $ebp: $ebp $ebx: $ebx $edi: $edi $esi: $esi .cfa: $esp 4 +
STACK CFI 8ff0 $ebp: .cfa -8 + ^ $ebx: .cfa -20 + ^ $edi: .cfa -12 + ^ $esi: .cfa -16 + ^ .cfa: $esp 80 +
STACK CFI INIT 9150 3e .cfa: $esp 4 + .ra: .cfa -4 + ^
STACK CFI 9151 $ebx: .cfa -8 + ^ .cfa: $esp 8 +
STACK CFI 9154 .cfa: $esp 32 +
STACK CFI 918c .cfa: $esp 8 +
STACK CFI 918d $ebx: $ebx .cfa: $esp 4 +
STACK CFI INIT 9090 38 .cfa: $esp 4 + .ra: .cfa -4 + ^
STACK CFI 9091 $ebx: .cfa -8 + ^ .cfa: $esp 8 +
STACK CFI 9094 .cfa: $esp 32 +
STACK CFI 90c6 .cfa: $esp 8 +
STACK CFI 90c7 $ebx: $ebx .cfa: $esp 4 +
STACK CFI INIT 90d0 38 .cfa: $esp 4 + .ra: .cfa -4 + ^
STACK CFI 90d1 $ebx: .cfa -8 + ^ .cfa: $esp 8 +
STACK CFI 90d4 .cfa: $esp 32 +
STACK CFI 9106 .cfa: $esp 8 +
STACK CFI 9107 $ebx: $ebx .cfa: $esp 4 +
STACK CFI INIT 9630 a2 .cfa: $esp 4 + .ra: .cfa -4 + ^
STACK CFI 9631 $ebp: .cfa -8 + ^ .cfa: $esp 8 +
STACK CFI 9632 $edi: .cfa -12 + ^ .cfa: $esp 12 +
STACK CFI 9633 $esi: .cfa -16 + ^ .cfa: $esp 16 +
STACK CFI 9634 $ebx: .cfa -20 + ^ .cfa: $esp 20 +
STACK CFI 9637 .cfa: $esp 96 +
STACK CFI 96c0 .cfa: $esp 20 +
STACK CFI 96c1 $ebx: $ebx .cfa: $esp 16 +
STACK CFI 96c2 $esi: $esi .cfa: $esp 12 +
STACK CFI 96c5 $edi: $edi .cfa: $esp 8 +
STACK CFI 96c6 $ebp: $ebp .cfa: $esp 4 +
STACK CFI 96c8 $ebp: .cfa -8 + ^ $ebx: .cfa -20 + ^ $edi: .cfa -12 + ^ $esi: .cfa -16 + ^ .cfa: $esp 96 +
STACK CFI 96cb .cfa: $esp 20 +
STACK CFI 96ce $ebx: $ebx .cfa: $esp 16 +
STACK CFI 96cf $esi: $esi .cfa: $esp 12 +
STACK CFI 96d0 $edi: $edi .cfa: $esp 8 +
STACK CFI 96d1 $ebp: $ebp .cfa: $esp 4 +
STACK CFI INIT 96e0 77 .cfa: $esp 4 + .ra: .cfa -4 + ^
STACK CFI 96e3 .cfa: $esp 64 +
STACK CFI 96eb $esi: .cfa -8 + ^
STACK CFI 96f3 $ebx: .cfa -12 + ^
STACK CFI 9756 $ebx: $ebx $esi: $esi .cfa: $esp 4 +
STACK CFI INIT 9af0 2ba .cfa: $esp 4 + .ra: .cfa -4 + ^
STACK CFI 9af1 $ebp: .cfa -8 + ^ .cfa: $esp 8 +
STACK CFI 9af2 $edi: .cfa -12 + ^ .cfa: $esp 12 +
STACK CFI 9af3 $esi: .cfa -16 + ^ .cfa: $esp 16 +
STACK CFI 9af4 $ebx: .cfa -20 + ^ .cfa: $esp 20 +
STACK CFI 9af7 .cfa: $esp 64 +
STACK CFI 9b7d .cfa: $esp 20 +
STACK CFI 9b7e $ebx: $ebx .cfa: $esp 16 +
STACK CFI 9b7f $esi: $esi .cfa: $esp 12 +
STACK CFI 9b80 $edi: $edi .cfa: $esp 8 +
STACK CFI 9b81 $ebp: $ebp .cfa: $esp 4 +
STACK CFI 9b88 $ebp: .cfa -8 + ^ $ebx: .cfa -20 + ^ $edi: .cfa -12 + ^ $esi: .cfa -16 + ^ .cfa: $esp 64 +
STACK CFI 9c32 .cfa: $esp 20 +
STACK CFI 9c33 $ebx: $ebx .cfa: $esp 16 +
STACK CFI 9c34 $esi: $esi .cfa: $esp 12 +
STACK CFI 9c35 $edi: $edi .cfa: $esp 8 +
STACK CFI 9c36 $ebp: $ebp .cfa: $esp 4 +
STACK CFI 9c38 $ebp: .cfa -8 + ^ $ebx: .cfa -20 + ^ $edi: .cfa -12 + ^ $esi: .cfa -16 + ^ .cfa: $esp 64 +
STACK CFI INIT 98d0 107 .cfa: $esp 4 + .ra: .cfa -4 + ^
STACK CFI 98d3 .cfa: $esp 80 +
STACK CFI 98d7 $ebx: .cfa -20 + ^
STACK CFI 98ea $edi: .cfa -12 + ^
STACK CFI 98f2 $esi: .cfa -16 + ^
STACK CFI 98f9 $ebp: .cfa -8 + ^
STACK CFI 99a1 $ebp: $ebp $ebx: $ebx $edi: $edi $esi: $esi .cfa: $esp 4 +
STACK CFI 99a8 $ebp: .cfa -8 + ^ $ebx: .cfa -20 + ^ $edi: .cfa -12 + ^ $esi: .cfa -16 + ^ .cfa: $esp 80 +
STACK CFI INIT 99e0 107 .cfa: $esp 4 + .ra: .cfa -4 + ^
STACK CFI 99e3 .cfa: $esp 80 +
STACK CFI 99e7 $ebx: .cfa -20 + ^
STACK CFI 99fa $edi: .cfa -12 + ^
STACK CFI 9a02 $esi: .cfa -16 + ^
STACK CFI 9a09 $ebp: .cfa -8 + ^
STACK CFI 9ab0 $ebp: $ebp $ebx: $ebx $edi: $edi $esi: $esi .cfa: $esp 4 +
STACK CFI 9ab8 $ebp: .cfa -8 + ^ $ebx: .cfa -20 + ^ $edi: .cfa -12 + ^ $esi: .cfa -16 + ^ .cfa: $esp 80 +
STACK CFI INIT 9f20 28 .cfa: $esp 4 + .ra: .cfa -4 + ^
STACK CFI 9f21 $ebx: .cfa -8 + ^ .cfa: $esp 8 +
STACK CFI 9f2f .cfa: $esp 32 +
STACK CFI 9f46 .cfa: $esp 8 +
STACK CFI 9f47 $ebx: $ebx .cfa: $esp 4 +
STACK CFI INIT 9db0 8c .cfa: $esp 4 + .ra: .cfa -4 + ^
STACK CFI 9db1 $esi: .cfa -8 + ^ .cfa: $esp 8 +
STACK CFI 9db2 $ebx: .cfa -12 + ^ .cfa: $esp 12 +
STACK CFI 9dc0 .cfa: $esp 32 +
STACK CFI 9e39 .cfa: $esp 12 +
STACK CFI 9e3a $ebx: $ebx .cfa: $esp 8 +
STACK CFI 9e3b $esi: $esi .cfa: $esp 4 +
STACK CFI INIT 9e40 db .cfa: $esp 4 + .ra: .cfa -4 + ^
STACK CFI 9e41 $edi: .cfa -8 + ^ .cfa: $esp 8 +
STACK CFI 9e42 $esi: .cfa -12 + ^ .cfa: $esp 12 +
STACK CFI 9e43 $ebx: .cfa -16 + ^ .cfa: $esp 16 +
STACK CFI 9e46 .cfa: $esp 48 +
STACK CFI 9eeb .cfa: $esp 16 +
STACK CFI 9eee $ebx: $ebx .cfa: $esp 12 +
STACK CFI 9eef $esi: $esi .cfa: $esp 8 +
STACK CFI 9ef0 $edi: $edi .cfa: $esp 4 +
STACK CFI 9ef1 $ebx: .cfa -16 + ^ $edi: .cfa -8 + ^ $esi: .cfa -12 + ^ .cfa: $esp 48 +
STACK CFI INIT 9f50 1b .cfa: $esp 4 + .ra: .cfa -4 + ^
STACK CFI INIT 9f70 54 .cfa: $esp 4 + .ra: .cfa -4 + ^
STACK CFI 9f71 $esi: .cfa -8 + ^ .cfa: $esp 8 +
STACK CFI 9fb3 $esi: $esi .cfa: $esp 4 +
STACK CFI 9fb8 $esi: .cfa -8 + ^ .cfa: $esp 8 +
STACK CFI 9fbe $esi: $esi .cfa: $esp 4 +
STACK CFI 9fc0 $esi: .cfa -8 + ^ .cfa: $esp 8 +
STACK CFI 9fc3 $esi: $esi .cfa: $esp 4 +
STACK CFI INIT 9fd0 60 .cfa: $esp 4 + .ra: .cfa -4 + ^
STACK CFI 9fd1 $edi: .cfa -8 + ^ .cfa: $esp 8 +
STACK CFI 9fd4 $esi: .cfa -12 + ^ .cfa: $esp 12 +
STACK CFI a019 $esi: $esi .cfa: $esp 8 +
STACK CFI a01a $edi: $edi .cfa: $esp 4 +
STACK CFI a020 $edi: .cfa -8 + ^ $esi: .cfa -12 + ^ .cfa: $esp 12 +
STACK CFI a026 $esi: $esi .cfa: $esp 8 +
STACK CFI a027 $edi: $edi .cfa: $esp 4 +
STACK CFI a028 $edi: .cfa -8 + ^ $esi: .cfa -12 + ^ .cfa: $esp 12 +
STACK CFI a02e $esi: $esi .cfa: $esp 8 +
STACK CFI a02f $edi: $edi .cfa: $esp 4 +
STACK CFI INIT a030 65 .cfa: $esp 4 + .ra: .cfa -4 + ^
STACK CFI a031 $edi: .cfa -8 + ^ .cfa: $esp 8 +
STACK CFI a034 $esi: .cfa -12 + ^ .cfa: $esp 12 +
STACK CFI a088 $esi: $esi .cfa: $esp 8 +
STACK CFI a089 $edi: $edi .cfa: $esp 4 +
STACK CFI a090 $edi: .cfa -8 + ^ $esi: .cfa -12 + ^ .cfa: $esp 12 +
STACK CFI a093 $esi: $esi .cfa: $esp 8 +
STACK CFI a094 $edi: $edi .cfa: $esp 4 +
STACK CFI INIT a0a0 55 .cfa: $esp 4 + .ra: .cfa -4 + ^
STACK CFI a0a1 $esi: .cfa -8 + ^ .cfa: $esp 8 +
STACK CFI a0a7 $ebx: .cfa -12 + ^ .cfa: $esp 12 +
STACK CFI a0aa .cfa: $esp 32 +
STACK CFI a0f0 .cfa: $esp 12 +
STACK CFI a0f3 $ebx: $ebx .cfa: $esp 8 +
STACK CFI a0f4 $esi: $esi .cfa: $esp 4 +
STACK CFI INIT a100 7e .cfa: $esp 4 + .ra: .cfa -4 + ^
STACK CFI a101 $ebp: .cfa -8 + ^ .cfa: $esp 8 +
STACK CFI a102 $edi: .cfa -12 + ^ .cfa: $esp 12 +
STACK CFI a103 $esi: .cfa -16 + ^ .cfa: $esp 16 +
STACK CFI a104 $ebx: .cfa -20 + ^ .cfa: $esp 20 +
STACK CFI a107 .cfa: $esp 48 +
STACK CFI a179 .cfa: $esp 20 +
STACK CFI a17a $ebx: $ebx .cfa: $esp 16 +
STACK CFI a17b $esi: $esi .cfa: $esp 12 +
STACK CFI a17c $edi: $edi .cfa: $esp 8 +
STACK CFI a17d $ebp: $ebp .cfa: $esp 4 +
STACK CFI INIT a180 32 .cfa: $esp 4 + .ra: .cfa -4 + ^
STACK CFI INIT a1c0 36 .cfa: $esp 4 + .ra: .cfa -4 + ^
STACK CFI a1c1 $esi: .cfa -8 + ^ .cfa: $esp 8 +
STACK CFI a1f5 $esi: $esi .cfa: $esp 4 +
STACK CFI INIT a200 3b .cfa: $esp 4 + .ra: .cfa -4 + ^
STACK CFI a201 $edi: .cfa -8 + ^ .cfa: $esp 8 +
STACK CFI a204 $esi: .cfa -12 + ^ .cfa: $esp 12 +
STACK CFI a239 $esi: $esi .cfa: $esp 8 +
STACK CFI a23a $edi: $edi .cfa: $esp 4 +
STACK CFI INIT a240 60 .cfa: $esp 4 + .ra: .cfa -4 + ^
STACK CFI a241 $esi: .cfa -8 + ^ .cfa: $esp 8 +
STACK CFI a29f $esi: $esi .cfa: $esp 4 +
STACK CFI INIT a2a0 3c .cfa: $esp 4 + .ra: .cfa -4 + ^
STACK CFI a2a1 $edi: .cfa -8 + ^ .cfa: $esp 8 +
STACK CFI a2a4 $esi: .cfa -12 + ^ .cfa: $esp 12 +
STACK CFI a2da $esi: $esi .cfa: $esp 8 +
STACK CFI a2db $edi: $edi .cfa: $esp 4 +
STACK CFI INIT a2e0 24 .cfa: $esp 4 + .ra: .cfa -4 + ^
STACK CFI INIT a310 53 .cfa: $esp 4 + .ra: .cfa -4 + ^
STACK CFI a311 $ebp: .cfa -8 + ^ .cfa: $esp 8 +
STACK CFI a314 $edi: .cfa -12 + ^ .cfa: $esp 12 +
STACK CFI a315 $esi: .cfa -16 + ^ .cfa: $esp 16 +
STACK CFI a31a .cfa: $esp 20 +
STACK CFI a35f .cfa: $esp 16 +
STACK CFI a360 $esi: $esi .cfa: $esp 12 +
STACK CFI a361 $edi: $edi .cfa: $esp 8 +
STACK CFI a362 $ebp: $ebp .cfa: $esp 4 +
STACK CFI INIT a370 64 .cfa: $esp 4 + .ra: .cfa -4 + ^
STACK CFI a371 $esi: .cfa -8 + ^ .cfa: $esp 8 +
STACK CFI a374 $ebx: .cfa -12 + ^ .cfa: $esp 12 +
STACK CFI a377 .cfa: $esp 32 +
STACK CFI a3a2 .cfa: $esp 12 +
STACK CFI a3a5 $ebx: $ebx .cfa: $esp 8 +
STACK CFI a3a6 $esi: $esi .cfa: $esp 4 +
STACK CFI a3a8 $ebx: .cfa -12 + ^ $esi: .cfa -8 + ^ .cfa: $esp 32 +
STACK CFI a3cd .cfa: $esp 12 +
STACK CFI a3ce $ebx: $ebx .cfa: $esp 8 +
STACK CFI a3d3 $esi: $esi .cfa: $esp 4 +
STACK CFI INIT a3e0 41 .cfa: $esp 4 + .ra: .cfa -4 + ^
STACK CFI a3e3 .cfa: $esp 20 +
STACK CFI a416 .cfa: $esp 4 +
STACK CFI a418 .cfa: $esp 20 +
STACK CFI a420 .cfa: $esp 4 +
STACK CFI INIT a430 58 .cfa: $esp 4 + .ra: .cfa -4 + ^
STACK CFI a433 .cfa: $esp 16 +
STACK CFI a43c $esi: .cfa -8 + ^
STACK CFI a44a $ebx: .cfa -12 + ^
STACK CFI a471 $ebx: $ebx $esi: $esi .cfa: $esp 4 +
STACK CFI a478 $ebx: .cfa -12 + ^ $esi: .cfa -8 + ^ .cfa: $esp 16 +
STACK CFI INIT a490 177 .cfa: $esp 4 + .ra: .cfa -4 + ^
STACK CFI a491 $ebp: .cfa -8 + ^ .cfa: $esp 8 +
STACK CFI a492 $edi: .cfa -12 + ^ .cfa: $esp 12 +
STACK CFI a493 $esi: .cfa -16 + ^ .cfa: $esp 16 +
STACK CFI a494 $ebx: .cfa -20 + ^ .cfa: $esp 20 +
STACK CFI a4a2 .cfa: $esp 144 +
STACK CFI a5ef .cfa: $esp 20 +
STACK CFI a5f0 $ebx: $ebx .cfa: $esp 16 +
STACK CFI a5f1 $esi: $esi .cfa: $esp 12 +
STACK CFI a5f2 $edi: $edi .cfa: $esp 8 +
STACK CFI a5f3 $ebp: $ebp .cfa: $esp 4 +
STACK CFI a5f8 $ebp: .cfa -8 + ^ $ebx: .cfa -20 + ^ $edi: .cfa -12 + ^ $esi: .cfa -16 + ^ .cfa: $esp 144 +
STACK CFI INIT a610 3a .cfa: $esp 4 + .ra: .cfa -4 + ^
STACK CFI a613 .cfa: $esp 32 +
STACK CFI a61d $esi: .cfa -8 + ^
STACK CFI a621 $ebx: .cfa -12 + ^
STACK CFI a649 $ebx: $ebx $esi: $esi .cfa: $esp 4 +
STACK CFI INIT a650 66 .cfa: $esp 4 + .ra: .cfa -4 + ^
STACK CFI a651 $ebp: .cfa -8 + ^ .cfa: $esp 8 +
STACK CFI a652 $edi: .cfa -12 + ^ .cfa: $esp 12 +
STACK CFI a653 $esi: .cfa -16 + ^ .cfa: $esp 16 +
STACK CFI a654 $ebx: .cfa -20 + ^ .cfa: $esp 20 +
STACK CFI a662 .cfa: $esp 32 +
STACK CFI a6b1 .cfa: $esp 20 +
STACK CFI a6b2 $ebx: $ebx .cfa: $esp 16 +
STACK CFI a6b3 $esi: $esi .cfa: $esp 12 +
STACK CFI a6b4 $edi: $edi .cfa: $esp 8 +
STACK CFI a6b5 $ebp: $ebp .cfa: $esp 4 +
STACK CFI INIT a6c0 36 .cfa: $esp 4 + .ra: .cfa -4 + ^
STACK CFI a6c3 .cfa: $esp 32 +
STACK CFI a6c7 $ebx: .cfa -12 + ^
STACK CFI a6da $esi: .cfa -8 + ^
STACK CFI a6f5 $ebx: $ebx $esi: $esi .cfa: $esp 4 +
STACK CFI INIT a700 123 .cfa: $esp 4 + .ra: .cfa -4 + ^
STACK CFI a701 $ebp: .cfa -8 + ^ .cfa: $esp 8 +
STACK CFI a702 $edi: .cfa -12 + ^ .cfa: $esp 12 +
STACK CFI a703 $esi: .cfa -16 + ^ .cfa: $esp 16 +
STACK CFI a704 $ebx: .cfa -20 + ^ .cfa: $esp 20 +
STACK CFI a715 .cfa: $esp 336 +
STACK CFI a7b8 .cfa: $esp 20 +
STACK CFI a7b9 $ebx: $ebx .cfa: $esp 16 +
STACK CFI a7ba $esi: $esi .cfa: $esp 12 +
STACK CFI a7bb $edi: $edi .cfa: $esp 8 +
STACK CFI a7bc $ebp: $ebp .cfa: $esp 4 +
STACK CFI a7c0 $ebp: .cfa -8 + ^ $ebx: .cfa -20 + ^ $edi: .cfa -12 + ^ $esi: .cfa -16 + ^ .cfa: $esp 336 +
STACK CFI a7d4 .cfa: $esp 20 +
STACK CFI a7d5 $ebx: $ebx .cfa: $esp 16 +
STACK CFI a7d6 $esi: $esi .cfa: $esp 12 +
STACK CFI a7d7 $edi: $edi .cfa: $esp 8 +
STACK CFI a7d8 $ebp: $ebp .cfa: $esp 4 +
STACK CFI a7e0 $ebp: .cfa -8 + ^ $ebx: .cfa -20 + ^ $edi: .cfa -12 + ^ $esi: .cfa -16 + ^ .cfa: $esp 336 +
STACK CFI INIT a830 58 .cfa: $esp 4 + .ra: .cfa -4 + ^
STACK CFI a833 .cfa: $esp 32 +
STACK CFI a837 $ebx: .cfa -16 + ^
STACK CFI a84a $esi: .cfa -12 + ^
STACK CFI a850 $edi: .cfa -8 + ^
STACK CFI a86d $ebx: $ebx $edi: $edi $esi: $esi .cfa: $esp 4 +
STACK CFI a870 $ebx: .cfa -16 + ^ $edi: .cfa -8 + ^ $esi: .cfa -12 + ^ .cfa: $esp 32 +
STACK CFI INIT a890 58 .cfa: $esp 4 + .ra: .cfa -4 + ^
STACK CFI a891 $ebp: .cfa -8 + ^ .cfa: $esp 8 +
STACK CFI a892 $edi: .cfa -12 + ^ .cfa: $esp 12 +
STACK CFI a893 $esi: .cfa -16 + ^ .cfa: $esp 16 +
STACK CFI a896 .cfa: $esp 20 +
STACK CFI a8d2 .cfa: $esp 16 +
STACK CFI a8d3 $esi: $esi .cfa: $esp 12 +
STACK CFI a8d4 $edi: $edi .cfa: $esp 8 +
STACK CFI a8d5 $ebp: $ebp .cfa: $esp 4 +
STACK CFI a8d8 $ebp: .cfa -8 + ^ $edi: .cfa -12 + ^ $esi: .cfa -16 + ^ .cfa: $esp 20 +
STACK CFI a8e2 .cfa: $esp 16 +
STACK CFI a8e5 $esi: $esi .cfa: $esp 12 +
STACK CFI a8e6 $edi: $edi .cfa: $esp 8 +
STACK CFI a8e7 $ebp: $ebp .cfa: $esp 4 +
STACK CFI INIT a8f0 6c .cfa: $esp 4 + .ra: .cfa -4 + ^
STACK CFI a8f1 $esi: .cfa -8 + ^ .cfa: $esp 8 +
STACK CFI a8f2 $ebx: .cfa -12 + ^ .cfa: $esp 12 +
STACK CFI a900 .cfa: $esp 32 +
STACK CFI a94e .cfa: $esp 12 +
STACK CFI a94f $ebx: $ebx .cfa: $esp 8 +
STACK CFI a950 $esi: $esi .cfa: $esp 4 +
STACK CFI a958 $ebx: .cfa -12 + ^ $esi: .cfa -8 + ^ .cfa: $esp 32 +
STACK CFI INIT a960 1fa .cfa: $esp 4 + .ra: .cfa -4 + ^
STACK CFI a966 .cfa: $esp 704 +
STACK CFI a96d $ebx: .cfa -20 + ^
STACK CFI a986 $edi: .cfa -12 + ^
STACK CFI a994 $ebp: .cfa -8 + ^
STACK CFI a99e $esi: .cfa -16 + ^
STACK CFI a9ce $ebp: $ebp $ebx: $ebx $edi: $edi $esi: $esi .cfa: $esp 4 +
STACK CFI a9d0 $ebp: .cfa -8 + ^ $ebx: .cfa -20 + ^ $edi: .cfa -12 + ^ $esi: .cfa -16 + ^ .cfa: $esp 704 +
STACK CFI INIT b990 1cd .cfa: $esp 4 + .ra: .cfa -4 + ^
STACK CFI b991 $ebp: .cfa -8 + ^ .cfa: $esp 8 +
STACK CFI b992 $edi: .cfa -12 + ^ .cfa: $esp 12 +
STACK CFI b993 $esi: .cfa -16 + ^ .cfa: $esp 16 +
STACK CFI b994 $ebx: .cfa -20 + ^ .cfa: $esp 20 +
STACK CFI b997 .cfa: $esp 96 +
STACK CFI ba22 .cfa: $esp 20 +
STACK CFI ba23 $ebx: $ebx .cfa: $esp 16 +
STACK CFI ba24 $esi: $esi .cfa: $esp 12 +
STACK CFI ba25 $edi: $edi .cfa: $esp 8 +
STACK CFI ba26 $ebp: $ebp .cfa: $esp 4 +
STACK CFI ba28 $ebp: .cfa -8 + ^ $ebx: .cfa -20 + ^ $edi: .cfa -12 + ^ $esi: .cfa -16 + ^ .cfa: $esp 96 +
STACK CFI INIT bb60 1cd .cfa: $esp 4 + .ra: .cfa -4 + ^
STACK CFI bb61 $ebp: .cfa -8 + ^ .cfa: $esp 8 +
STACK CFI bb62 $edi: .cfa -12 + ^ .cfa: $esp 12 +
STACK CFI bb63 $esi: .cfa -16 + ^ .cfa: $esp 16 +
STACK CFI bb64 $ebx: .cfa -20 + ^ .cfa: $esp 20 +
STACK CFI bb67 .cfa: $esp 96 +
STACK CFI bbf2 .cfa: $esp 20 +
STACK CFI bbf3 $ebx: $ebx .cfa: $esp 16 +
STACK CFI bbf4 $esi: $esi .cfa: $esp 12 +
STACK CFI bbf5 $edi: $edi .cfa: $esp 8 +
STACK CFI bbf6 $ebp: $ebp .cfa: $esp 4 +
STACK CFI bbf8 $ebp: .cfa -8 + ^ $ebx: .cfa -20 + ^ $edi: .cfa -12 + ^ $esi: .cfa -16 + ^ .cfa: $esp 96 +
STACK CFI INIT bd30 1cd .cfa: $esp 4 + .ra: .cfa -4 + ^
STACK CFI bd31 $ebp: .cfa -8 + ^ .cfa: $esp 8 +
STACK CFI bd32 $edi: .cfa -12 + ^ .cfa: $esp 12 +
STACK CFI bd33 $esi: .cfa -16 + ^ .cfa: $esp 16 +
STACK CFI bd34 $ebx: .cfa -20 + ^ .cfa: $esp 20 +
STACK CFI bd37 .cfa: $esp 96 +
STACK CFI bdc2 .cfa: $esp 20 +
STACK CFI bdc3 $ebx: $ebx .cfa: $esp 16 +
STACK CFI bdc4 $esi: $esi .cfa: $esp 12 +
STACK CFI bdc5 $edi: $edi .cfa: $esp 8 +
STACK CFI bdc6 $ebp: $ebp .cfa: $esp 4 +
STACK CFI bdc8 $ebp: .cfa -8 + ^ $ebx: .cfa -20 + ^ $edi: .cfa -12 + ^ $esi: .cfa -16 + ^ .cfa: $esp 96 +
STACK CFI INIT bf00 2e5 .cfa: $esp 4 + .ra: .cfa -4 + ^
STACK CFI bf03 .cfa: $esp 96 +
STACK CFI bf0b $ebp: .cfa -8 + ^
STACK CFI bf0f $ebx: .cfa -20 + ^
STACK CFI bf2a $edi: .cfa -12 + ^ $esi: .cfa -16 + ^
STACK CFI bf84 $ebp: $ebp $ebx: $ebx $edi: $edi $esi: $esi .cfa: $esp 4 +
STACK CFI bf88 $ebp: .cfa -8 + ^ $ebx: .cfa -20 + ^ $edi: .cfa -12 + ^ $esi: .cfa -16 + ^ .cfa: $esp 96 +
STACK CFI INIT c1f0 440 .cfa: $esp 4 + .ra: .cfa -4 + ^
STACK CFI c1f1 $ebp: .cfa -8 + ^ .cfa: $esp 8 +
STACK CFI c1f2 $edi: .cfa -12 + ^ .cfa: $esp 12 +
STACK CFI c1f3 $esi: .cfa -16 + ^ .cfa: $esp 16 +
STACK CFI c1f4 $ebx: .cfa -20 + ^ .cfa: $esp 20 +
STACK CFI c1f7 .cfa: $esp 96 +
STACK CFI c342 .cfa: $esp 20 +
STACK CFI c343 $ebx: $ebx .cfa: $esp 16 +
STACK CFI c344 $esi: $esi .cfa: $esp 12 +
STACK CFI c345 $edi: $edi .cfa: $esp 8 +
STACK CFI c346 $ebp: $ebp .cfa: $esp 4 +
STACK CFI c348 $ebp: .cfa -8 + ^ $ebx: .cfa -20 + ^ $edi: .cfa -12 + ^ $esi: .cfa -16 + ^ .cfa: $esp 96 +
STACK CFI c3c4 .cfa: $esp 20 +
STACK CFI c3c5 $ebx: $ebx .cfa: $esp 16 +
STACK CFI c3c6 $esi: $esi .cfa: $esp 12 +
STACK CFI c3c7 $edi: $edi .cfa: $esp 8 +
STACK CFI c3c8 $ebp: $ebp .cfa: $esp 4 +
STACK CFI c3d0 $ebp: .cfa -8 + ^ $ebx: .cfa -20 + ^ $edi: .cfa -12 + ^ $esi: .cfa -16 + ^ .cfa: $esp 96 +
STACK CFI c50c .cfa: $esp 20 +
STACK CFI c50d $ebx: $ebx .cfa: $esp 16 +
STACK CFI c50e $esi: $esi .cfa: $esp 12 +
STACK CFI c50f $edi: $edi .cfa: $esp 8 +
STACK CFI c510 $ebp: $ebp .cfa: $esp 4 +
STACK CFI c518 $ebp: .cfa -8 + ^ $ebx: .cfa -20 + ^ $edi: .cfa -12 + ^ $esi: .cfa -16 + ^ .cfa: $esp 96 +
STACK CFI INIT c630 3f5 .cfa: $esp 4 + .ra: .cfa -4 + ^
STACK CFI c631 $ebp: .cfa -8 + ^ .cfa: $esp 8 +
STACK CFI c632 $edi: .cfa -12 + ^ .cfa: $esp 12 +
STACK CFI c633 $esi: .cfa -16 + ^ .cfa: $esp 16 +
STACK CFI c634 $ebx: .cfa -20 + ^ .cfa: $esp 20 +
STACK CFI c637 .cfa: $esp 96 +
STACK CFI c6ec .cfa: $esp 20 +
STACK CFI c6ed $ebx: $ebx .cfa: $esp 16 +
STACK CFI c6ee $esi: $esi .cfa: $esp 12 +
STACK CFI c6ef $edi: $edi .cfa: $esp 8 +
STACK CFI c6f0 $ebp: $ebp .cfa: $esp 4 +
STACK CFI c6f8 $ebp: .cfa -8 + ^ $ebx: .cfa -20 + ^ $edi: .cfa -12 + ^ $esi: .cfa -16 + ^ .cfa: $esp 96 +
STACK CFI c764 .cfa: $esp 20 +
STACK CFI c765 $ebx: $ebx .cfa: $esp 16 +
STACK CFI c766 $esi: $esi .cfa: $esp 12 +
STACK CFI c767 $edi: $edi .cfa: $esp 8 +
STACK CFI c768 $ebp: $ebp .cfa: $esp 4 +
STACK CFI c770 $ebp: .cfa -8 + ^ $ebx: .cfa -20 + ^ $edi: .cfa -12 + ^ $esi: .cfa -16 + ^ .cfa: $esp 96 +
STACK CFI c8b4 .cfa: $esp 20 +
STACK CFI c8b5 $ebx: $ebx .cfa: $esp 16 +
STACK CFI c8b6 $esi: $esi .cfa: $esp 12 +
STACK CFI c8b7 $edi: $edi .cfa: $esp 8 +
STACK CFI c8b8 $ebp: $ebp .cfa: $esp 4 +
STACK CFI c8c0 $ebp: .cfa -8 + ^ $ebx: .cfa -20 + ^ $edi: .cfa -12 + ^ $esi: .cfa -16 + ^ .cfa: $esp 96 +
STACK CFI INIT b0d0 8bd .cfa: $esp 4 + .ra: .cfa -4 + ^
STACK CFI b0d1 $ebp: .cfa -8 + ^ .cfa: $esp 8 +
STACK CFI b0d2 $edi: .cfa -12 + ^ .cfa: $esp 12 +
STACK CFI b0d3 $esi: .cfa -16 + ^ .cfa: $esp 16 +
STACK CFI b0d4 $ebx: .cfa -20 + ^ .cfa: $esp 20 +
STACK CFI b0e5 .cfa: $esp 384 +
STACK CFI b240 .cfa: $esp 20 +
STACK CFI b241 $ebx: $ebx .cfa: $esp 16 +
STACK CFI b242 $esi: $esi .cfa: $esp 12 +
STACK CFI b243 $edi: $edi .cfa: $esp 8 +
STACK CFI b244 $ebp: $ebp .cfa: $esp 4 +
STACK CFI b245 $ebp: .cfa -8 + ^ $ebx: .cfa -20 + ^ $edi: .cfa -12 + ^ $esi: .cfa -16 + ^ .cfa: $esp 384 +
STACK CFI b258 .cfa: $esp 20 +
STACK CFI b25b $ebx: $ebx .cfa: $esp 16 +
STACK CFI b25c $esi: $esi .cfa: $esp 12 +
STACK CFI b25d $edi: $edi .cfa: $esp 8 +
STACK CFI b25e $ebp: $ebp .cfa: $esp 4 +
STACK CFI b25f $ebp: .cfa -8 + ^ $ebx: .cfa -20 + ^ $edi: .cfa -12 + ^ $esi: .cfa -16 + ^ .cfa: $esp 384 +
STACK CFI b32b .cfa: $esp 20 +
STACK CFI b32e $ebx: $ebx .cfa: $esp 16 +
STACK CFI b32f $esi: $esi .cfa: $esp 12 +
STACK CFI b330 $edi: $edi .cfa: $esp 8 +
STACK CFI b331 $ebp: $ebp .cfa: $esp 4 +
STACK CFI b332 $ebp: .cfa -8 + ^ $ebx: .cfa -20 + ^ $edi: .cfa -12 + ^ $esi: .cfa -16 + ^ .cfa: $esp 384 +
STACK CFI INIT ca30 3 .cfa: $esp 4 + .ra: .cfa -4 + ^
STACK CFI INIT d850 2b .cfa: $esp 4 + .ra: .cfa -4 + ^
STACK CFI d851 $ebx: .cfa -8 + ^ .cfa: $esp 8 +
STACK CFI d85f .cfa: $esp 32 +
STACK CFI d879 .cfa: $esp 8 +
STACK CFI d87a $ebx: $ebx .cfa: $esp 4 +
STACK CFI INIT d880 41 .cfa: $esp 4 + .ra: .cfa -4 + ^
STACK CFI d883 .cfa: $esp 32 +
STACK CFI d887 $ebx: .cfa -12 + ^
STACK CFI d89a $esi: .cfa -8 + ^
STACK CFI d8c0 $ebx: $ebx $esi: $esi .cfa: $esp 4 +
STACK CFI INIT ca40 102 .cfa: $esp 4 + .ra: .cfa -4 + ^
STACK CFI ca43 .cfa: $esp 80 +
STACK CFI ca51 $ebx: .cfa -20 + ^ $esi: .cfa -16 + ^
STACK CFI ca66 $edi: .cfa -12 + ^
STACK CFI ca6c $ebp: .cfa -8 + ^
STACK CFI ca9d $ebp: $ebp $ebx: $ebx $edi: $edi $esi: $esi .cfa: $esp 4 +
STACK CFI caa0 $ebp: .cfa -8 + ^ $ebx: .cfa -20 + ^ $edi: .cfa -12 + ^ $esi: .cfa -16 + ^ .cfa: $esp 80 +
STACK CFI INIT cb50 9f .cfa: $esp 4 + .ra: .cfa -4 + ^
STACK CFI cb51 $ebp: .cfa -8 + ^ .cfa: $esp 8 +
STACK CFI cb52 $edi: .cfa -12 + ^ .cfa: $esp 12 +
STACK CFI cb53 $esi: .cfa -16 + ^ .cfa: $esp 16 +
STACK CFI cb54 $ebx: .cfa -20 + ^ .cfa: $esp 20 +
STACK CFI cb57 .cfa: $esp 80 +
STACK CFI cbcc .cfa: $esp 20 +
STACK CFI cbcd $ebx: $ebx .cfa: $esp 16 +
STACK CFI cbce $esi: $esi .cfa: $esp 12 +
STACK CFI cbcf $edi: $edi .cfa: $esp 8 +
STACK CFI cbd0 $ebp: $ebp .cfa: $esp 4 +
STACK CFI cbd8 $ebp: .cfa -8 + ^ $ebx: .cfa -20 + ^ $edi: .cfa -12 + ^ $esi: .cfa -16 + ^ .cfa: $esp 80 +
STACK CFI INIT cbf0 a0 .cfa: $esp 4 + .ra: .cfa -4 + ^
STACK CFI cbf1 $ebp: .cfa -8 + ^ .cfa: $esp 8 +
STACK CFI cbf2 $edi: .cfa -12 + ^ .cfa: $esp 12 +
STACK CFI cbf3 $esi: .cfa -16 + ^ .cfa: $esp 16 +
STACK CFI cbf4 $ebx: .cfa -20 + ^ .cfa: $esp 20 +
STACK CFI cbf7 .cfa: $esp 48 +
STACK CFI cc79 .cfa: $esp 20 +
STACK CFI cc7a $ebx: $ebx .cfa: $esp 16 +
STACK CFI cc7b $esi: $esi .cfa: $esp 12 +
STACK CFI cc7c $edi: $edi .cfa: $esp 8 +
STACK CFI cc7d $ebp: $ebp .cfa: $esp 4 +
STACK CFI cc80 $ebp: .cfa -8 + ^ $ebx: .cfa -20 + ^ $edi: .cfa -12 + ^ $esi: .cfa -16 + ^ .cfa: $esp 48 +
STACK CFI INIT cc90 58d .cfa: $esp 4 + .ra: .cfa -4 + ^
STACK CFI cc91 $ebp: .cfa -8 + ^ .cfa: $esp 8 +
STACK CFI cc92 $edi: .cfa -12 + ^ .cfa: $esp 12 +
STACK CFI cc93 $esi: .cfa -16 + ^ .cfa: $esp 16 +
STACK CFI cc94 $ebx: .cfa -20 + ^ .cfa: $esp 20 +
STACK CFI cc9a .cfa: $esp 336 +
STACK CFI cef0 .cfa: $esp 20 +
STACK CFI cef3 $ebx: $ebx .cfa: $esp 16 +
STACK CFI cef4 $esi: $esi .cfa: $esp 12 +
STACK CFI cef5 $edi: $edi .cfa: $esp 8 +
STACK CFI cef6 $ebp: $ebp .cfa: $esp 4 +
STACK CFI cef7 $ebp: .cfa -8 + ^ $ebx: .cfa -20 + ^ $edi: .cfa -12 + ^ $esi: .cfa -16 + ^ .cfa: $esp 336 +
STACK CFI cf0c .cfa: $esp 20 +
STACK CFI cf0f $ebx: $ebx .cfa: $esp 16 +
STACK CFI cf10 $esi: $esi .cfa: $esp 12 +
STACK CFI cf11 $edi: $edi .cfa: $esp 8 +
STACK CFI cf12 $ebp: $ebp .cfa: $esp 4 +
STACK CFI cf18 $ebp: .cfa -8 + ^ $ebx: .cfa -20 + ^ $edi: .cfa -12 + ^ $esi: .cfa -16 + ^ .cfa: $esp 336 +
STACK CFI INIT d220 45 .cfa: $esp 4 + .ra: .cfa -4 + ^
STACK CFI d223 .cfa: $esp 32 +
STACK CFI d22b $ebx: .cfa -12 + ^
STACK CFI d23e $esi: .cfa -8 + ^
STACK CFI d264 $ebx: $ebx $esi: $esi .cfa: $esp 4 +
STACK CFI INIT d8d0 329 .cfa: $esp 4 + .ra: .cfa -4 + ^
STACK CFI d8d3 .cfa: $esp 96 +
STACK CFI d8db $ebp: .cfa -8 + ^
STACK CFI d8df $ebx: .cfa -20 + ^
STACK CFI d8fa $edi: .cfa -12 + ^ $esi: .cfa -16 + ^
STACK CFI d94f $ebp: $ebp $ebx: $ebx $edi: $edi $esi: $esi .cfa: $esp 4 +
STACK CFI d950 $ebp: .cfa -8 + ^ $ebx: .cfa -20 + ^ $edi: .cfa -12 + ^ $esi: .cfa -16 + ^ .cfa: $esp 96 +
STACK CFI INIT d270 396 .cfa: $esp 4 + .ra: .cfa -4 + ^
STACK CFI d271 $ebp: .cfa -8 + ^ .cfa: $esp 8 +
STACK CFI d272 $edi: .cfa -12 + ^ .cfa: $esp 12 +
STACK CFI d273 $esi: .cfa -16 + ^ .cfa: $esp 16 +
STACK CFI d274 $ebx: .cfa -20 + ^ .cfa: $esp 20 +
STACK CFI d285 .cfa: $esp 336 +
STACK CFI d3cd .cfa: $esp 20 +
STACK CFI d3d0 $ebx: $ebx .cfa: $esp 16 +
STACK CFI d3d1 $esi: $esi .cfa: $esp 12 +
STACK CFI d3d2 $edi: $edi .cfa: $esp 8 +
STACK CFI d3d3 $ebp: $ebp .cfa: $esp 4 +
STACK CFI d3d4 $ebp: .cfa -8 + ^ $ebx: .cfa -20 + ^ $edi: .cfa -12 + ^ $esi: .cfa -16 + ^ .cfa: $esp 336 +
STACK CFI d49e .cfa: $esp 20 +
STACK CFI d4a1 $ebx: $ebx .cfa: $esp 16 +
STACK CFI d4a4 $esi: $esi .cfa: $esp 12 +
STACK CFI d4a5 $edi: $edi .cfa: $esp 8 +
STACK CFI d4a6 $ebp: $ebp .cfa: $esp 4 +
STACK CFI d4a8 $ebp: .cfa -8 + ^ $ebx: .cfa -20 + ^ $edi: .cfa -12 + ^ $esi: .cfa -16 + ^ .cfa: $esp 336 +
STACK CFI INIT dc00 41a .cfa: $esp 4 + .ra: .cfa -4 + ^
STACK CFI dc01 $ebp: .cfa -8 + ^ .cfa: $esp 8 +
STACK CFI dc02 $edi: .cfa -12 + ^ .cfa: $esp 12 +
STACK CFI dc03 $esi: .cfa -16 + ^ .cfa: $esp 16 +
STACK CFI dc04 $ebx: .cfa -20 + ^ .cfa: $esp 20 +
STACK CFI dc07 .cfa: $esp 96 +
STACK CFI dcb4 .cfa: $esp 20 +
STACK CFI dcb5 $ebx: $ebx .cfa: $esp 16 +
STACK CFI dcb6 $esi: $esi .cfa: $esp 12 +
STACK CFI dcb7 $edi: $edi .cfa: $esp 8 +
STACK CFI dcb8 $ebp: $ebp .cfa: $esp 4 +
STACK CFI dcc0 $ebp: .cfa -8 + ^ $ebx: .cfa -20 + ^ $edi: .cfa -12 + ^ $esi: .cfa -16 + ^ .cfa: $esp 96 +
STACK CFI dd34 .cfa: $esp 20 +
STACK CFI dd35 $ebx: $ebx .cfa: $esp 16 +
STACK CFI dd36 $esi: $esi .cfa: $esp 12 +
STACK CFI dd37 $edi: $edi .cfa: $esp 8 +
STACK CFI dd38 $ebp: $ebp .cfa: $esp 4 +
STACK CFI dd40 $ebp: .cfa -8 + ^ $ebx: .cfa -20 + ^ $edi: .cfa -12 + ^ $esi: .cfa -16 + ^ .cfa: $esp 96 +
STACK CFI de92 .cfa: $esp 20 +
STACK CFI de93 $ebx: $ebx .cfa: $esp 16 +
STACK CFI de94 $esi: $esi .cfa: $esp 12 +
STACK CFI de95 $edi: $edi .cfa: $esp 8 +
STACK CFI de96 $ebp: $ebp .cfa: $esp 4 +
STACK CFI de98 $ebp: .cfa -8 + ^ $ebx: .cfa -20 + ^ $edi: .cfa -12 + ^ $esi: .cfa -16 + ^ .cfa: $esp 96 +
STACK CFI INIT d610 232 .cfa: $esp 4 + .ra: .cfa -4 + ^
STACK CFI d611 $ebp: .cfa -8 + ^ .cfa: $esp 8 +
STACK CFI d617 $edi: .cfa -12 + ^ .cfa: $esp 12 +
STACK CFI d618 $esi: .cfa -16 + ^ .cfa: $esp 16 +
STACK CFI d619 $ebx: .cfa -20 + ^ .cfa: $esp 20 +
STACK CFI d61c .cfa: $esp 144 +
STACK CFI d7a2 .cfa: $esp 20 +
STACK CFI d7a3 $ebx: $ebx .cfa: $esp 16 +
STACK CFI d7a4 $esi: $esi .cfa: $esp 12 +
STACK CFI d7a5 $edi: $edi .cfa: $esp 8 +
STACK CFI d7a6 $ebp: $ebp .cfa: $esp 4 +
STACK CFI d7a8 $ebp: .cfa -8 + ^ $ebx: .cfa -20 + ^ $edi: .cfa -12 + ^ $esi: .cfa -16 + ^ .cfa: $esp 144 +
STACK CFI INIT e020 d8 .cfa: $esp 4 + .ra: .cfa -4 + ^
STACK CFI e026 $esi: .cfa -8 + ^ .cfa: $esp 8 +
STACK CFI e03a $esi: $esi .cfa: $esp 4 +
STACK CFI e040 $esi: .cfa -8 + ^ .cfa: $esp 8 +
STACK CFI e059 $esi: $esi .cfa: $esp 4 +
STACK CFI e060 $esi: .cfa -8 + ^ .cfa: $esp 8 +
STACK CFI e0c3 $esi: $esi .cfa: $esp 4 +
STACK CFI e0c8 $esi: .cfa -8 + ^ .cfa: $esp 8 +
STACK CFI INIT e100 fa .cfa: $esp 4 + .ra: .cfa -4 + ^
STACK CFI e101 $ebp: .cfa -8 + ^ .cfa: $esp 8 +
STACK CFI e102 $edi: .cfa -12 + ^ .cfa: $esp 12 +
STACK CFI e103 $esi: .cfa -16 + ^ .cfa: $esp 16 +
STACK CFI e106 .cfa: $esp 20 +
STACK CFI e1aa .cfa: $esp 16 +
STACK CFI e1ab $esi: $esi .cfa: $esp 12 +
STACK CFI e1ac $edi: $edi .cfa: $esp 8 +
STACK CFI e1ad $ebp: $ebp .cfa: $esp 4 +
STACK CFI e1b0 $ebp: .cfa -8 + ^ $edi: .cfa -12 + ^ $esi: .cfa -16 + ^ .cfa: $esp 20 +
STACK CFI INIT e200 cd .cfa: $esp 4 + .ra: .cfa -4 + ^
STACK CFI e201 $ebp: .cfa -8 + ^ .cfa: $esp 8 +
STACK CFI e202 $edi: .cfa -12 + ^ .cfa: $esp 12 +
STACK CFI e203 $esi: .cfa -16 + ^ .cfa: $esp 16 +
STACK CFI e206 .cfa: $esp 24 +
STACK CFI e2c2 .cfa: $esp 16 +
STACK CFI e2c3 $esi: $esi .cfa: $esp 12 +
STACK CFI e2c4 $edi: $edi .cfa: $esp 8 +
STACK CFI e2c5 $ebp: $ebp .cfa: $esp 4 +
STACK CFI e2c6 $ebp: .cfa -8 + ^ $edi: .cfa -12 + ^ $esi: .cfa -16 + ^ .cfa: $esp 24 +
STACK CFI INIT e2d0 1dc .cfa: $esp 4 + .ra: .cfa -4 + ^
STACK CFI e2d1 $ebp: .cfa -8 + ^ .cfa: $esp 8 +
STACK CFI e2d2 $edi: .cfa -12 + ^ .cfa: $esp 12 +
STACK CFI e2d3 $esi: .cfa -16 + ^ .cfa: $esp 16 +
STACK CFI e2d4 $ebx: .cfa -20 + ^ .cfa: $esp 20 +
STACK CFI e2d7 .cfa: $esp 32 +
STACK CFI e3af .cfa: $esp 20 +
STACK CFI e3b0 $ebx: $ebx .cfa: $esp 16 +
STACK CFI e3b1 $esi: $esi .cfa: $esp 12 +
STACK CFI e3b2 $edi: $edi .cfa: $esp 8 +
STACK CFI e3b3 $ebp: $ebp .cfa: $esp 4 +
STACK CFI e3b8 $ebp: .cfa -8 + ^ $ebx: .cfa -20 + ^ $edi: .cfa -12 + ^ $esi: .cfa -16 + ^ .cfa: $esp 32 +
STACK CFI INIT e4b0 34 .cfa: $esp 4 + .ra: .cfa -4 + ^
STACK CFI e4b1 $ebx: .cfa -8 + ^ .cfa: $esp 8 +
STACK CFI e4d8 $ebx: $ebx .cfa: $esp 4 +
STACK CFI e4e0 $ebx: .cfa -8 + ^ .cfa: $esp 8 +
STACK CFI e4e3 $ebx: $ebx .cfa: $esp 4 +
STACK CFI INIT e4f0 1c2 .cfa: $esp 4 + .ra: .cfa -4 + ^
STACK CFI e4f1 $ebp: .cfa -8 + ^ .cfa: $esp 8 +
STACK CFI e4f2 $edi: .cfa -12 + ^ .cfa: $esp 12 +
STACK CFI e4f3 $esi: .cfa -16 + ^ .cfa: $esp 16 +
STACK CFI e4f4 $ebx: .cfa -20 + ^ .cfa: $esp 20 +
STACK CFI e4f7 .cfa: $esp 28 +
STACK CFI e690 .cfa: $esp 20 +
STACK CFI e691 $ebx: $ebx .cfa: $esp 16 +
STACK CFI e692 $esi: $esi .cfa: $esp 12 +
STACK CFI e693 $edi: $edi .cfa: $esp 8 +
STACK CFI e694 $ebp: $ebp .cfa: $esp 4 +
STACK CFI e698 $ebp: .cfa -8 + ^ $ebx: .cfa -20 + ^ $edi: .cfa -12 + ^ $esi: .cfa -16 + ^ .cfa: $esp 28 +
STACK CFI INIT e6c0 185 .cfa: $esp 4 + .ra: .cfa -4 + ^
STACK CFI e6c1 $ebp: .cfa -8 + ^ .cfa: $esp 8 +
STACK CFI e6c2 $edi: .cfa -12 + ^ .cfa: $esp 12 +
STACK CFI e6c3 $esi: .cfa -16 + ^ .cfa: $esp 16 +
STACK CFI e6c4 $ebx: .cfa -20 + ^ .cfa: $esp 20 +
STACK CFI e6c7 .cfa: $esp 28 +
STACK CFI e7ad .cfa: $esp 20 +
STACK CFI e7ae $ebx: $ebx .cfa: $esp 16 +
STACK CFI e7af $esi: $esi .cfa: $esp 12 +
STACK CFI e7b0 $edi: $edi .cfa: $esp 8 +
STACK CFI e7b1 $ebp: $ebp .cfa: $esp 4 +
STACK CFI e7b8 $ebp: .cfa -8 + ^ $ebx: .cfa -20 + ^ $edi: .cfa -12 + ^ $esi: .cfa -16 + ^ .cfa: $esp 28 +
STACK CFI INIT e850 1f7 .cfa: $esp 4 + .ra: .cfa -4 + ^
STACK CFI e851 $ebp: .cfa -8 + ^ .cfa: $esp 8 +
STACK CFI e852 $edi: .cfa -12 + ^ .cfa: $esp 12 +
STACK CFI e853 $esi: .cfa -16 + ^ .cfa: $esp 16 +
STACK CFI e854 $ebx: .cfa -20 + ^ .cfa: $esp 20 +
STACK CFI e857 .cfa: $esp 32 +
STACK CFI e9a7 .cfa: $esp 20 +
STACK CFI e9a8 $ebx: $ebx .cfa: $esp 16 +
STACK CFI e9a9 $esi: $esi .cfa: $esp 12 +
STACK CFI e9aa $edi: $edi .cfa: $esp 8 +
STACK CFI e9ab $ebp: $ebp .cfa: $esp 4 +
STACK CFI e9b0 $ebp: .cfa -8 + ^ $ebx: .cfa -20 + ^ $edi: .cfa -12 + ^ $esi: .cfa -16 + ^ .cfa: $esp 32 +
STACK CFI INIT ea50 30 .cfa: $esp 4 + .ra: .cfa -4 + ^
STACK CFI ea51 $ebx: .cfa -8 + ^ .cfa: $esp 8 +
STACK CFI ea54 .cfa: $esp 32 +
STACK CFI ea7e .cfa: $esp 8 +
STACK CFI ea7f $ebx: $ebx .cfa: $esp 4 +
STACK CFI INIT ea80 25a .cfa: $esp 4 + .ra: .cfa -4 + ^
STACK CFI ea81 $ebp: .cfa -8 + ^ .cfa: $esp 8 +
STACK CFI ea82 $edi: .cfa -12 + ^ .cfa: $esp 12 +
STACK CFI ea83 $esi: .cfa -16 + ^ .cfa: $esp 16 +
STACK CFI ea84 $ebx: .cfa -20 + ^ .cfa: $esp 20 +
STACK CFI ea92 .cfa: $esp 96 +
STACK CFI eb96 .cfa: $esp 20 +
STACK CFI eb97 $ebx: $ebx .cfa: $esp 16 +
STACK CFI eb98 $esi: $esi .cfa: $esp 12 +
STACK CFI eb99 $edi: $edi .cfa: $esp 8 +
STACK CFI eb9a $ebp: $ebp .cfa: $esp 4 +
STACK CFI eba0 $ebp: .cfa -8 + ^ $ebx: .cfa -20 + ^ $edi: .cfa -12 + ^ $esi: .cfa -16 + ^ .cfa: $esp 96 +
STACK CFI INIT ed60 102 .cfa: $esp 4 + .ra: .cfa -4 + ^
STACK CFI ed61 $ebp: .cfa -8 + ^ .cfa: $esp 8 +
STACK CFI ed62 $edi: .cfa -12 + ^ .cfa: $esp 12 +
STACK CFI ed63 $esi: .cfa -16 + ^ .cfa: $esp 16 +
STACK CFI ed66 .cfa: $esp 44 +
STACK CFI ee5e .cfa: $esp 16 +
STACK CFI ee5f $esi: $esi .cfa: $esp 12 +
STACK CFI ee60 $edi: $edi .cfa: $esp 8 +
STACK CFI ee61 $ebp: $ebp .cfa: $esp 4 +
STACK CFI INIT ee70 12 .cfa: $esp 4 + .ra: .cfa -4 + ^
STACK CFI INIT ee90 63 .cfa: $esp 4 + .ra: .cfa -4 + ^
STACK CFI ee93 .cfa: $esp 16 +
STACK CFI ee9b $esi: .cfa -12 + ^
STACK CFI ee9e $ebx: .cfa -16 + ^
STACK CFI eeb3 $edi: .cfa -8 + ^
STACK CFI eee7 $ebx: $ebx $edi: $edi $esi: $esi .cfa: $esp 4 +
STACK CFI eee8 $ebx: .cfa -16 + ^ $edi: .cfa -8 + ^ $esi: .cfa -12 + ^ .cfa: $esp 16 +
STACK CFI INIT ef00 1ce .cfa: $esp 4 + .ra: .cfa -4 + ^
STACK CFI ef06 .cfa: $esp 160 +
STACK CFI ef14 $ebx: .cfa -20 + ^
STACK CFI ef2b $edi: .cfa -12 + ^
STACK CFI ef3c $ebp: .cfa -8 + ^ $esi: .cfa -16 + ^
STACK CFI ef8c $ebp: $ebp $ebx: $ebx $edi: $edi $esi: $esi .cfa: $esp 4 +
STACK CFI ef90 $ebp: .cfa -8 + ^ $ebx: .cfa -20 + ^ $edi: .cfa -12 + ^ $esi: .cfa -16 + ^ .cfa: $esp 160 +
STACK CFI INIT f0d0 35 .cfa: $esp 4 + .ra: .cfa -4 + ^
STACK CFI f0d1 $ebx: .cfa -8 + ^ .cfa: $esp 8 +
STACK CFI f0d4 .cfa: $esp 32 +
STACK CFI f103 .cfa: $esp 8 +
STACK CFI f104 $ebx: $ebx .cfa: $esp 4 +
STACK CFI INIT f110 20 .cfa: $esp 4 + .ra: .cfa -4 + ^
STACK CFI f111 $ebx: .cfa -8 + ^ .cfa: $esp 8 +
STACK CFI f11f .cfa: $esp 32 +
STACK CFI f12e .cfa: $esp 8 +
STACK CFI f12f $ebx: $ebx .cfa: $esp 4 +
STACK CFI INIT f130 7c .cfa: $esp 4 + .ra: .cfa -4 + ^
STACK CFI f133 .cfa: $esp 16 +
STACK CFI f13c $edi: .cfa -8 + ^
STACK CFI f151 $ebx: .cfa -16 + ^ $esi: .cfa -12 + ^
STACK CFI f184 $ebx: $ebx $edi: $edi $esi: $esi .cfa: $esp 4 +
STACK CFI f188 $ebx: .cfa -16 + ^ $edi: .cfa -8 + ^ $esi: .cfa -12 + ^ .cfa: $esp 16 +
STACK CFI f1a7 $ebx: $ebx $edi: $edi $esi: $esi .cfa: $esp 4 +
STACK CFI f1a8 $ebx: .cfa -16 + ^ $edi: .cfa -8 + ^ $esi: .cfa -12 + ^ .cfa: $esp 16 +
STACK CFI INIT f1b0 37 .cfa: $esp 4 + .ra: .cfa -4 + ^
STACK CFI f1b1 $ebx: .cfa -8 + ^ .cfa: $esp 8 +
STACK CFI f1bf .cfa: $esp 32 +
STACK CFI f1e5 .cfa: $esp 8 +
STACK CFI f1e6 $ebx: $ebx .cfa: $esp 4 +
STACK CFI INIT f1f0 9 .cfa: $esp 4 + .ra: .cfa -4 + ^
STACK CFI INIT f200 2d0 .cfa: $esp 4 + .ra: .cfa -4 + ^
STACK CFI f203 .cfa: $esp 64 +
STACK CFI f20b $esi: .cfa -16 + ^
STACK CFI f20f $ebx: .cfa -20 + ^
STACK CFI f222 $edi: .cfa -12 + ^
STACK CFI f22c $ebp: .cfa -8 + ^
STACK CFI f272 $ebp: $ebp $ebx: $ebx $edi: $edi $esi: $esi .cfa: $esp 4 +
STACK CFI f278 $ebp: .cfa -8 + ^ $ebx: .cfa -20 + ^ $edi: .cfa -12 + ^ $esi: .cfa -16 + ^ .cfa: $esp 64 +
STACK CFI INIT f770 152 .cfa: $esp 4 + .ra: .cfa -4 + ^
STACK CFI f771 $ebp: .cfa -8 + ^ .cfa: $esp 8 +
STACK CFI f772 $edi: .cfa -12 + ^ .cfa: $esp 12 +
STACK CFI f773 $esi: .cfa -16 + ^ .cfa: $esp 16 +
STACK CFI f774 $ebx: .cfa -20 + ^ .cfa: $esp 20 +
STACK CFI f777 .cfa: $esp 80 +
STACK CFI f82c .cfa: $esp 20 +
STACK CFI f82f $ebx: $ebx .cfa: $esp 16 +
STACK CFI f830 $esi: $esi .cfa: $esp 12 +
STACK CFI f831 $edi: $edi .cfa: $esp 8 +
STACK CFI f832 $ebp: $ebp .cfa: $esp 4 +
STACK CFI f838 $ebp: .cfa -8 + ^ $ebx: .cfa -20 + ^ $edi: .cfa -12 + ^ $esi: .cfa -16 + ^ .cfa: $esp 80 +
STACK CFI f83b .cfa: $esp 20 +
STACK CFI f83e $ebx: $ebx .cfa: $esp 16 +
STACK CFI f841 $esi: $esi .cfa: $esp 12 +
STACK CFI f842 $edi: $edi .cfa: $esp 8 +
STACK CFI f843 $ebp: $ebp .cfa: $esp 4 +
STACK CFI f844 $ebp: .cfa -8 + ^ $ebx: .cfa -20 + ^ $edi: .cfa -12 + ^ $esi: .cfa -16 + ^ .cfa: $esp 80 +
STACK CFI INIT f8d0 152 .cfa: $esp 4 + .ra: .cfa -4 + ^
STACK CFI f8d1 $ebp: .cfa -8 + ^ .cfa: $esp 8 +
STACK CFI f8d2 $edi: .cfa -12 + ^ .cfa: $esp 12 +
STACK CFI f8d3 $esi: .cfa -16 + ^ .cfa: $esp 16 +
STACK CFI f8d4 $ebx: .cfa -20 + ^ .cfa: $esp 20 +
STACK CFI f8d7 .cfa: $esp 80 +
STACK CFI f98c .cfa: $esp 20 +
STACK CFI f98f $ebx: $ebx .cfa: $esp 16 +
STACK CFI f990 $esi: $esi .cfa: $esp 12 +
STACK CFI f991 $edi: $edi .cfa: $esp 8 +
STACK CFI f992 $ebp: $ebp .cfa: $esp 4 +
STACK CFI f998 $ebp: .cfa -8 + ^ $ebx: .cfa -20 + ^ $edi: .cfa -12 + ^ $esi: .cfa -16 + ^ .cfa: $esp 80 +
STACK CFI f99b .cfa: $esp 20 +
STACK CFI f99e $ebx: $ebx .cfa: $esp 16 +
STACK CFI f9a1 $esi: $esi .cfa: $esp 12 +
STACK CFI f9a2 $edi: $edi .cfa: $esp 8 +
STACK CFI f9a3 $ebp: $ebp .cfa: $esp 4 +
STACK CFI f9a4 $ebp: .cfa -8 + ^ $ebx: .cfa -20 + ^ $edi: .cfa -12 + ^ $esi: .cfa -16 + ^ .cfa: $esp 80 +
STACK CFI INIT f4d0 29f .cfa: $esp 4 + .ra: .cfa -4 + ^
STACK CFI f4d3 .cfa: $esp 64 +
STACK CFI f4db $esi: .cfa -16 + ^
STACK CFI f4df $ebx: .cfa -20 + ^
STACK CFI f4f2 $edi: .cfa -12 + ^
STACK CFI f4fc $ebp: .cfa -8 + ^
STACK CFI f542 $ebp: $ebp $ebx: $ebx $edi: $edi $esi: $esi .cfa: $esp 4 +
STACK CFI f548 $ebp: .cfa -8 + ^ $ebx: .cfa -20 + ^ $edi: .cfa -12 + ^ $esi: .cfa -16 + ^ .cfa: $esp 64 +
STACK CFI INIT fa30 61 .cfa: $esp 4 + .ra: .cfa -4 + ^
STACK CFI fa31 $ebp: .cfa -8 + ^ .cfa: $esp 8 +
STACK CFI fa32 $edi: .cfa -12 + ^ .cfa: $esp 12 +
STACK CFI fa35 $esi: .cfa -16 + ^ .cfa: $esp 16 +
STACK CFI fa36 $ebx: .cfa -20 + ^ .cfa: $esp 20 +
STACK CFI fa44 .cfa: $esp 48 +
STACK CFI fa8c .cfa: $esp 20 +
STACK CFI fa8d $ebx: $ebx .cfa: $esp 16 +
STACK CFI fa8e $esi: $esi .cfa: $esp 12 +
STACK CFI fa8f $edi: $edi .cfa: $esp 8 +
STACK CFI fa90 $ebp: $ebp .cfa: $esp 4 +
STACK CFI INIT faa0 2 .cfa: $esp 4 + .ra: .cfa -4 + ^
STACK CFI INIT f10 3c0 .cfa: $esp 8 + .ra: .cfa -4 + ^
STACK CFI f16 .cfa: $esp 12 +
STACK CFI INIT 1850 4cf .cfa: $esp 4 + .ra: .cfa -4 + ^
STACK CFI 1856 .cfa: $esp 144 +
STACK CFI 1861 $ebx: .cfa -20 + ^
STACK CFI 1888 $ebp: .cfa -8 + ^ $edi: .cfa -12 + ^ $esi: .cfa -16 + ^
STACK CFI 18c6 $ebp: $ebp $ebx: $ebx $edi: $edi $esi: $esi .cfa: $esp 4 +
STACK CFI 18c8 $ebp: .cfa -8 + ^ $ebx: .cfa -20 + ^ $edi: .cfa -12 + ^ $esi: .cfa -16 + ^ .cfa: $esp 144 +
STACK CFI INIT 26a0 17c .cfa: $esp 4 + .ra: .cfa -4 + ^
STACK CFI 26a3 .cfa: $esp 96 +
STACK CFI 26af $ebx: .cfa -20 + ^
STACK CFI 26c2 $esi: .cfa -16 + ^
STACK CFI 26ce $ebp: .cfa -8 + ^ $edi: .cfa -12 + ^
STACK CFI 277a $ebp: $ebp $ebx: $ebx $edi: $edi $esi: $esi .cfa: $esp 4 +
STACK CFI 2780 $ebp: .cfa -8 + ^ $ebx: .cfa -20 + ^ $edi: .cfa -12 + ^ $esi: .cfa -16 + ^ .cfa: $esp 96 +
STACK CFI INIT 2820 362 .cfa: $esp 4 + .ra: .cfa -4 + ^
STACK CFI 2823 .cfa: $esp 80 +
STACK CFI 2830 $esi: .cfa -16 + ^
STACK CFI 2847 $ebp: .cfa -8 + ^ $ebx: .cfa -20 + ^ $edi: .cfa -12 + ^
STACK CFI 293f $ebp: $ebp $ebx: $ebx $edi: $edi $esi: $esi .cfa: $esp 4 +
STACK CFI 2940 $ebp: .cfa -8 + ^ $ebx: .cfa -20 + ^ $edi: .cfa -12 + ^ $esi: .cfa -16 + ^ .cfa: $esp 80 +
STACK CFI INIT 2b90 2fb .cfa: $esp 4 + .ra: .cfa -4 + ^
STACK CFI 2b91 $ebp: .cfa -8 + ^ .cfa: $esp 8 +
STACK CFI 2b92 $edi: .cfa -12 + ^ .cfa: $esp 12 +
STACK CFI 2b93 $esi: .cfa -16 + ^ .cfa: $esp 16 +
STACK CFI 2b94 $ebx: .cfa -20 + ^ .cfa: $esp 20 +
STACK CFI 2ba2 .cfa: $esp 112 +
STACK CFI 2cac .cfa: $esp 20 +
STACK CFI 2cad $ebx: $ebx .cfa: $esp 16 +
STACK CFI 2cae $esi: $esi .cfa: $esp 12 +
STACK CFI 2caf $edi: $edi .cfa: $esp 8 +
STACK CFI 2cb0 $ebp: $ebp .cfa: $esp 4 +
STACK CFI 2cb8 $ebp: .cfa -8 + ^ $ebx: .cfa -20 + ^ $edi: .cfa -12 + ^ $esi: .cfa -16 + ^ .cfa: $esp 112 +
STACK CFI INIT 2e90 1a8 .cfa: $esp 4 + .ra: .cfa -4 + ^
STACK CFI 2e96 .cfa: $esp 176 +
STACK CFI 2ea1 $ebx: .cfa -20 + ^
STACK CFI 2eba $esi: .cfa -16 + ^
STACK CFI 2ecc $ebp: .cfa -8 + ^ $edi: .cfa -12 + ^
STACK CFI 2fa5 $ebp: $ebp $ebx: $ebx $edi: $edi $esi: $esi .cfa: $esp 4 +
STACK CFI 2fa6 $ebp: .cfa -8 + ^ $ebx: .cfa -20 + ^ $edi: .cfa -12 + ^ $esi: .cfa -16 + ^ .cfa: $esp 176 +
STACK CFI INIT 33c0 2da .cfa: $esp 4 + .ra: .cfa -4 + ^
STACK CFI 33c6 .cfa: $esp 144 +
STACK CFI 33d4 $esi: .cfa -16 + ^
STACK CFI 33d8 $ebx: .cfa -20 + ^
STACK CFI 33fa $ebp: .cfa -8 + ^ $edi: .cfa -12 + ^
STACK CFI 357c $ebp: $ebp $ebx: $ebx $edi: $edi $esi: $esi .cfa: $esp 4 +
STACK CFI 357d $ebp: .cfa -8 + ^ $ebx: .cfa -20 + ^ $edi: .cfa -12 + ^ $esi: .cfa -16 + ^ .cfa: $esp 144 +
STACK CFI INIT 37d0 64 .cfa: $esp 4 + .ra: .cfa -4 + ^
STACK CFI 37d3 .cfa: $esp 32 +
STACK CFI 37d7 $ebx: .cfa -16 + ^
STACK CFI 37eb $esi: .cfa -12 + ^
STACK CFI 37f2 $edi: .cfa -8 + ^
STACK CFI 3816 $ebx: $ebx $edi: $edi $esi: $esi .cfa: $esp 4 +
STACK CFI 3818 $ebx: .cfa -16 + ^ $edi: .cfa -8 + ^ $esi: .cfa -12 + ^ .cfa: $esp 32 +
STACK CFI INIT 3840 35e6 .cfa: $esp 4 + .ra: .cfa -4 + ^
STACK CFI 3841 $ebp: .cfa -8 + ^ .cfa: $esp 8 +
STACK CFI 3842 $edi: .cfa -12 + ^ .cfa: $esp 12 +
STACK CFI 3843 $esi: .cfa -16 + ^ .cfa: $esp 16 +
STACK CFI 3844 $ebx: .cfa -20 + ^ .cfa: $esp 20 +
STACK CFI 384a .cfa: $esp 3152 +
STACK CFI 397a .cfa: $esp 20 +
STACK CFI 397d $ebx: $ebx .cfa: $esp 16 +
STACK CFI 397e $esi: $esi .cfa: $esp 12 +
STACK CFI 397f $edi: $edi .cfa: $esp 8 +
STACK CFI 3980 $ebp: $ebp .cfa: $esp 4 +
STACK CFI 3981 $ebp: .cfa -8 + ^ $ebx: .cfa -20 + ^ $edi: .cfa -12 + ^ $esi: .cfa -16 + ^ .cfa: $esp 3152 +
STACK CFI INIT 6e30 30f .cfa: $esp 4 + .ra: .cfa -4 + ^
STACK CFI 6e31 $ebp: .cfa -8 + ^ .cfa: $esp 8 +
STACK CFI 6e32 $edi: .cfa -12 + ^ .cfa: $esp 12 +
STACK CFI 6e33 $esi: .cfa -16 + ^ .cfa: $esp 16 +
STACK CFI 6e34 $ebx: .cfa -20 + ^ .cfa: $esp 20 +
STACK CFI 6e45 .cfa: $esp 240 +
STACK CFI 7082 .cfa: $esp 20 +
STACK CFI 7085 $ebx: $ebx .cfa: $esp 16 +
STACK CFI 7086 $esi: $esi .cfa: $esp 12 +
STACK CFI 7087 $edi: $edi .cfa: $esp 8 +
STACK CFI 7088 $ebp: $ebp .cfa: $esp 4 +
STACK CFI 7089 $ebp: .cfa -8 + ^ $ebx: .cfa -20 + ^ $edi: .cfa -12 + ^ $esi: .cfa -16 + ^ .cfa: $esp 240 +
STACK CFI INIT 7140 30b .cfa: $esp 4 + .ra: .cfa -4 + ^
STACK CFI 7146 .cfa: $esp 224 +
STACK CFI 7154 $ebx: .cfa -20 + ^
STACK CFI 7168 $ebp: .cfa -8 + ^
STACK CFI 717a $edi: .cfa -12 + ^
STACK CFI 7190 $esi: .cfa -16 + ^
STACK CFI 71ed $ebp: $ebp $ebx: $ebx $edi: $edi $esi: $esi .cfa: $esp 4 +
STACK CFI 71f0 $ebp: .cfa -8 + ^ $ebx: .cfa -20 + ^ $edi: .cfa -12 + ^ $esi: .cfa -16 + ^ .cfa: $esp 224 +
STACK CFI INIT 7550 c4 .cfa: $esp 4 + .ra: .cfa -4 + ^
STACK CFI 7551 $ebp: .cfa -8 + ^ .cfa: $esp 8 +
STACK CFI 7552 $edi: .cfa -12 + ^ .cfa: $esp 12 +
STACK CFI 7553 $esi: .cfa -16 + ^ .cfa: $esp 16 +
STACK CFI 7554 $ebx: .cfa -20 + ^ .cfa: $esp 20 +
STACK CFI 7557 .cfa: $esp 96 +
STACK CFI 75f3 .cfa: $esp 20 +
STACK CFI 75f6 $ebx: $ebx .cfa: $esp 16 +
STACK CFI 75f7 $esi: $esi .cfa: $esp 12 +
STACK CFI 75f8 $edi: $edi .cfa: $esp 8 +
STACK CFI 75f9 $ebp: $ebp .cfa: $esp 4 +
STACK CFI 75fa $ebp: .cfa -8 + ^ $ebx: .cfa -20 + ^ $edi: .cfa -12 + ^ $esi: .cfa -16 + ^ .cfa: $esp 96 +
STACK CFI INIT 7620 cc .cfa: $esp 4 + .ra: .cfa -4 + ^
STACK CFI 7621 $ebp: .cfa -8 + ^ .cfa: $esp 8 +
STACK CFI 7627 $edi: .cfa -12 + ^ .cfa: $esp 12 +
STACK CFI 7628 $esi: .cfa -16 + ^ .cfa: $esp 16 +
STACK CFI 7629 $ebx: .cfa -20 + ^ .cfa: $esp 20 +
STACK CFI 762c .cfa: $esp 96 +
STACK CFI 76cb .cfa: $esp 20 +
STACK CFI 76ce $ebx: $ebx .cfa: $esp 16 +
STACK CFI 76cf $esi: $esi .cfa: $esp 12 +
STACK CFI 76d0 $edi: $edi .cfa: $esp 8 +
STACK CFI 76d1 $ebp: $ebp .cfa: $esp 4 +
STACK CFI 76d2 $ebp: .cfa -8 + ^ $ebx: .cfa -20 + ^ $edi: .cfa -12 + ^ $esi: .cfa -16 + ^ .cfa: $esp 96 +
STACK CFI INIT 76f0 1c5 .cfa: $esp 4 + .ra: .cfa -4 + ^
STACK CFI 76f1 $edi: .cfa -8 + ^ .cfa: $esp 8 +
STACK CFI 76f2 $esi: .cfa -12 + ^ .cfa: $esp 12 +
STACK CFI 76f3 $ebx: .cfa -16 + ^ .cfa: $esp 16 +
STACK CFI 7701 .cfa: $esp 112 +
STACK CFI 7804 .cfa: $esp 16 +
STACK CFI 7807 $ebx: $ebx .cfa: $esp 12 +
STACK CFI 7808 $esi: $esi .cfa: $esp 8 +
STACK CFI 7809 $edi: $edi .cfa: $esp 4 +
STACK CFI 7810 $ebx: .cfa -16 + ^ $edi: .cfa -8 + ^ $esi: .cfa -12 + ^ .cfa: $esp 112 +
STACK CFI INIT 9190 24b .cfa: $esp 4 + .ra: .cfa -4 + ^
STACK CFI 9191 $ebp: .cfa -8 + ^ .cfa: $esp 8 +
STACK CFI 9192 $edi: .cfa -12 + ^ .cfa: $esp 12 +
STACK CFI 9193 $esi: .cfa -16 + ^ .cfa: $esp 16 +
STACK CFI 9194 $ebx: .cfa -20 + ^ .cfa: $esp 20 +
STACK CFI 9197 .cfa: $esp 96 +
STACK CFI 9297 .cfa: $esp 20 +
STACK CFI 929a $ebx: $ebx .cfa: $esp 16 +
STACK CFI 929b $esi: $esi .cfa: $esp 12 +
STACK CFI 929c $edi: $edi .cfa: $esp 8 +
STACK CFI 929d $ebp: $ebp .cfa: $esp 4 +
STACK CFI 92a0 $ebp: .cfa -8 + ^ $ebx: .cfa -20 + ^ $edi: .cfa -12 + ^ $esi: .cfa -16 + ^ .cfa: $esp 96 +
STACK CFI INIT 93e0 24b .cfa: $esp 4 + .ra: .cfa -4 + ^
STACK CFI 93e1 $ebp: .cfa -8 + ^ .cfa: $esp 8 +
STACK CFI 93e2 $edi: .cfa -12 + ^ .cfa: $esp 12 +
STACK CFI 93e3 $esi: .cfa -16 + ^ .cfa: $esp 16 +
STACK CFI 93e4 $ebx: .cfa -20 + ^ .cfa: $esp 20 +
STACK CFI 93e7 .cfa: $esp 96 +
STACK CFI 94e7 .cfa: $esp 20 +
STACK CFI 94ea $ebx: $ebx .cfa: $esp 16 +
STACK CFI 94eb $esi: $esi .cfa: $esp 12 +
STACK CFI 94ec $edi: $edi .cfa: $esp 8 +
STACK CFI 94ed $ebp: $ebp .cfa: $esp 4 +
STACK CFI 94f0 $ebp: .cfa -8 + ^ $ebx: .cfa -20 + ^ $edi: .cfa -12 + ^ $esi: .cfa -16 + ^ .cfa: $esp 96 +
STACK CFI INIT 9760 16c .cfa: $esp 4 + .ra: .cfa -4 + ^
STACK CFI 9761 $ebp: .cfa -8 + ^ .cfa: $esp 8 +
STACK CFI 9762 $edi: .cfa -12 + ^ .cfa: $esp 12 +
STACK CFI 9763 $esi: .cfa -16 + ^ .cfa: $esp 16 +
STACK CFI 9764 $ebx: .cfa -20 + ^ .cfa: $esp 20 +
STACK CFI 9767 .cfa: $esp 96 +
STACK CFI 9824 .cfa: $esp 20 +
STACK CFI 9825 $ebx: $ebx .cfa: $esp 16 +
STACK CFI 9826 $esi: $esi .cfa: $esp 12 +
STACK CFI 9827 $edi: $edi .cfa: $esp 8 +
STACK CFI 9828 $ebp: $ebp .cfa: $esp 4 +
STACK CFI 9830 $ebp: .cfa -8 + ^ $ebx: .cfa -20 + ^ $edi: .cfa -12 + ^ $esi: .cfa -16 + ^ .cfa: $esp 96 +
STACK CFI INIT ab60 3c1 .cfa: $esp 4 + .ra: .cfa -4 + ^
STACK CFI ab66 .cfa: $esp 368 +
STACK CFI ab75 $ebx: .cfa -20 + ^
STACK CFI ab8e $ebp: .cfa -8 + ^
STACK CFI aba4 $edi: .cfa -12 + ^ $esi: .cfa -16 + ^
STACK CFI ac27 $ebp: $ebp $ebx: $ebx $edi: $edi $esi: $esi .cfa: $esp 4 +
STACK CFI ac28 $ebp: .cfa -8 + ^ $ebx: .cfa -20 + ^ $edi: .cfa -12 + ^ $esi: .cfa -16 + ^ .cfa: $esp 368 +
STACK CFI INIT af30 192 .cfa: $esp 4 + .ra: .cfa -4 + ^
STACK CFI af33 .cfa: $esp 80 +
STACK CFI af3b $ebx: .cfa -20 + ^
STACK CFI af4e $esi: .cfa -16 + ^
STACK CFI af5c $ebp: .cfa -8 + ^ $edi: .cfa -12 + ^
STACK CFI b051 $ebp: $ebp $ebx: $ebx $edi: $edi $esi: $esi .cfa: $esp 4 +
STACK CFI b058 $ebp: .cfa -8 + ^ $ebx: .cfa -20 + ^ $edi: .cfa -12 + ^ $esi: .cfa -16 + ^ .cfa: $esp 80 +
STACK CFI INIT ece0 7e .cfa: $esp 4 + .ra: .cfa -4 + ^
STACK CFI ece3 .cfa: $esp 48 +
STACK CFI eceb $ebx: .cfa -16 + ^
STACK CFI ecfe $esi: .cfa -12 + ^
STACK CFI ed09 $edi: .cfa -8 + ^
STACK CFI ed41 $ebx: $ebx $edi: $edi $esi: $esi .cfa: $esp 4 +
STACK CFI ed48 $ebx: .cfa -16 + ^ $edi: .cfa -8 + ^ $esi: .cfa -12 + ^ .cfa: $esp 48 +
STACK CFI INIT 14ec ad .cfa: $esp 4 + .ra: .cfa -4 + ^
STACK CFI 14ed $ebp: .cfa -8 + ^ .cfa: $esp 8 +
STACK CFI 14ef .cfa: $ebp 8 +
STACK CFI 150c $ebx: .cfa -12 + ^
STACK CFI 1597 $ebx: $ebx
STACK CFI 1598 $ebp: $ebp .cfa: $esp 4 +
STACK CFI INIT 15a6 43 .cfa: $esp 4 + .ra: .cfa -4 + ^
STACK CFI 15a7 $ebp: .cfa -8 + ^ .cfa: $esp 8 +
STACK CFI 15a9 .cfa: $ebp 8 +
STACK CFI 15b6 $ebx: .cfa -12 + ^
STACK CFI 15cd $ebx: $ebx
STACK CFI 15ce $ebp: $ebp .cfa: $esp 4 +
STACK CFI 15cf $ebp: .cfa -8 + ^ $ebx: .cfa -12 + ^ .cfa: $ebp 8 +
STACK CFI INIT 13d9 113 .cfa: $esp 4 + .ra: .cfa -4 + ^
STACK CFI 13da $ebp: .cfa -8 + ^ .cfa: $esp 8 +
STACK CFI 13dc .cfa: $ebp 8 +
STACK CFI 13ea $ebx: .cfa -12 + ^
STACK CFI 149b $ebp: $ebp $ebx: $ebx .cfa: $esp 4 +
STACK CFI 149c $ebp: .cfa -8 + ^ $ebx: .cfa -12 + ^ .cfa: $ebp 8 +
